ccopy_reg
_reconstructor
p0
(cPycharmProjects.MPC.est_de
TrafficDemand
p1
c__builtin__
object
p2
Ntp3
Rp4
(dp5
Vd
p6
(dp7
I11
(lp8
F0.0099
aF0.0296
aF0.0343
aF0.0507
aF0.0453
aF0.0723
aF0.0791
aF0.0825
aF0.0815
aF0.1112
aF0.0882
aF0.1127
aF0.1475
aF0.1325
aF0.1483
aF0.1667
aF0.1401
aF0.1546
aF0.1823
aF0.1714
aF0.1724
aF0.2054
aF0.2014
aF0.2088
aF0.2485
aF0.2556
aF0.2397
aF0.2372
aF0.2415
aF0.263
aF0.2615
aF0.2672
aF0.2877
aF0.2966
aF0.3126
aF0.3149
aF0.3232
aF0.3405
aF0.3515
aF0.3604
aF0.3613
aF0.3454
aF0.388
aF0.3725
aF0.4129
aF0.4148
aF0.4062
aF0.3933
aF0.4486
aF0.4319
aF0.4607
aF0.4389
aF0.4396
aF0.4687
aF0.4543
aF0.4729
aF0.5074
aF0.5175
aF0.5208
aF0.5064
aF0.539
aF0.5463
aF0.5176
aF0.5326
aF0.506
aF0.5279
aF0.52
aF0.5309
aF0.5197
aF0.5121
aF0.5089
aF0.5162
aF0.5493
aF0.5383
aF0.5352
aF0.5058
aF0.548
aF0.5463
aF0.5117
aF0.5202
aF0.5317
aF0.5301
aF0.502
aF0.5358
aF0.5174
aF0.5457
aF0.5351
aF0.5401
aF0.5455
aF0.5428
aF0.5181
aF0.501
aF0.5467
aF0.5319
aF0.5258
aF0.5127
aF0.5378
aF0.501
aF0.5308
aF0.5357
aF0.5021
aF0.5278
aF0.5094
aF0.5052
aF0.5245
aF0.5447
aF0.5263
aF0.5136
aF0.5395
aF0.5296
aF0.5022
aF0.5353
aF0.5248
aF0.5061
aF0.5265
aF0.5451
aF0.5334
aF0.5203
aF0.5405
aF0.5066
aF0.5247
aF0.5469
aF0.5492
aF0.5332
aF0.5397
aF0.5238
aF0.5312
aF0.5364
aF0.5412
aF0.5342
aF0.5077
aF0.5499
aF0.5492
aF0.5034
aF0.523
aF0.504
aF0.522
aF0.5122
aF0.535
aF0.5442
aF0.5375
aF0.534
aF0.5207
aF0.5271
aF0.5048
aF0.5053
aF0.5068
aF0.534
aF0.5163
aF0.531
aF0.504
aF0.5222
aF0.5345
aF0.5419
aF0.5353
aF0.5463
aF0.5139
aF0.5499
aF0.5449
aF0.5245
aF0.5037
aF0.5494
aF0.5276
aF0.5279
aF0.5136
aF0.522
aF0.5411
aF0.5032
aF0.5375
aF0.5206
aF0.5439
aF0.5301
aF0.5031
aF0.5307
aF0.536
aF0.5385
aF0.5363
aF0.5241
aF0.528
aF0.5451
aF0.5434
aF0.4917
aF0.4833
aF0.475
aF0.4667
aF0.4583
aF0.45
aF0.4417
aF0.4333
aF0.425
aF0.4167
aF0.4083
aF0.4
aF0.3917
aF0.3833
aF0.375
aF0.3667
aF0.3583
aF0.35
aF0.3417
aF0.3333
aF0.325
aF0.3167
aF0.3083
aF0.3
aF0.2917
aF0.2833
aF0.275
aF0.2667
aF0.2583
aF0.25
aF0.2417
aF0.2333
aF0.225
aF0.2167
aF0.2083
aF0.2
aF0.1917
aF0.1833
aF0.175
aF0.1667
aF0.1583
aF0.15
aF0.1417
aF0.1333
aF0.125
aF0.1167
aF0.1083
aF0.1
aF0.0917
aF0.0833
aF0.075
aF0.0667
aF0.0583
aF0.05
aF0.0417
aF0.0333
aF0.025
aF0.0167
aF0.0083
aF0.0
aI0
aI0
aI0
aI0
aI0
aI0
aI0
aI0
aI0
aI0
aI0
aI0
aI0
aI0
aI0
aI0
aI0
aI0
aI0
aI0
aI0
aI0
aI0
aI0
aI0
aI0
aI0
aI0
aI0
aI0
aI0
aI0
aI0
aI0
aI0
aI0
aI0
aI0
aI0
aI0
aI0
aI0
aI0
aI0
aI0
aI0
aI0
aI0
aI0
aI0
aI0
aI0
aI0
aI0
aI0
aI0
aI0
aI0
aI0
asI12
(lp9
F0.0384
aF0.0285
aF0.0501
aF0.074
aF0.0401
aF0.0582
aF0.0724
aF0.0912
aF0.0948
aF0.0876
aF0.112
aF0.1157
aF0.1113
aF0.1496
aF0.1558
aF0.1743
aF0.1349
aF0.1876
aF0.1788
aF0.1879
aF0.1798
aF0.2164
aF0.2182
aF0.232
aF0.2141
aF0.2463
aF0.261
aF0.2416
aF0.2756
aF0.2624
aF0.2588
aF0.2641
aF0.2988
aF0.3119
aF0.3182
aF0.3171
aF0.3148
aF0.3373
aF0.334
aF0.3523
aF0.3594
aF0.3518
aF0.3809
aF0.4021
aF0.4158
aF0.3913
aF0.4027
aF0.3956
aF0.4118
aF0.4507
aF0.4239
aF0.4288
aF0.4773
aF0.4859
aF0.4662
aF0.4954
aF0.4946
aF0.4841
aF0.5332
aF0.5363
aF0.5049
aF0.5346
aF0.5305
aF0.5325
aF0.5313
aF0.5132
aF0.5111
aF0.5366
aF0.5223
aF0.5386
aF0.5155
aF0.5243
aF0.538
aF0.5363
aF0.5478
aF0.5442
aF0.5306
aF0.5142
aF0.5126
aF0.5339
aF0.5163
aF0.5111
aF0.5107
aF0.5262
aF0.5023
aF0.542
aF0.5307
aF0.5267
aF0.5139
aF0.5395
aF0.5023
aF0.5185
aF0.5493
aF0.5167
aF0.5276
aF0.5306
aF0.5016
aF0.5428
aF0.5203
aF0.5105
aF0.523
aF0.532
aF0.5488
aF0.5264
aF0.5141
aF0.5069
aF0.5441
aF0.5375
aF0.5321
aF0.5354
aF0.5087
aF0.5222
aF0.5444
aF0.5411
aF0.5012
aF0.5159
aF0.5192
aF0.5108
aF0.5497
aF0.5083
aF0.5376
aF0.5174
aF0.532
aF0.5446
aF0.5499
aF0.5298
aF0.5204
aF0.5191
aF0.5437
aF0.518
aF0.5047
aF0.51
aF0.5185
aF0.5126
aF0.5465
aF0.5345
aF0.5128
aF0.5095
aF0.5463
aF0.5034
aF0.5259
aF0.5171
aF0.5317
aF0.5247
aF0.519
aF0.5002
aF0.5484
aF0.5034
aF0.5212
aF0.536
aF0.5122
aF0.5078
aF0.5016
aF0.5183
aF0.5456
aF0.5241
aF0.5004
aF0.5414
aF0.5478
aF0.5044
aF0.5162
aF0.5117
aF0.5144
aF0.5348
aF0.5105
aF0.523
aF0.5103
aF0.5052
aF0.5082
aF0.5198
aF0.5406
aF0.5224
aF0.5455
aF0.5237
aF0.535
aF0.518
aF0.5119
aF0.5145
aF0.5125
aF0.504
aF0.522
aF0.4917
aF0.4833
aF0.475
aF0.4667
aF0.4583
aF0.45
aF0.4417
aF0.4333
aF0.425
aF0.4167
aF0.4083
aF0.4
aF0.3917
aF0.3833
aF0.375
aF0.3667
aF0.3583
aF0.35
aF0.3417
aF0.3333
aF0.325
aF0.3167
aF0.3083
aF0.3
aF0.2917
aF0.2833
aF0.275
aF0.2667
aF0.2583
aF0.25
aF0.2417
aF0.2333
aF0.225
aF0.2167
aF0.2083
aF0.2
aF0.1917
aF0.1833
aF0.175
aF0.1667
aF0.1583
aF0.15
aF0.1417
aF0.1333
aF0.125
aF0.1167
aF0.1083
aF0.1
aF0.0917
aF0.0833
aF0.075
aF0.0667
aF0.0583
aF0.05
aF0.0417
aF0.0333
aF0.025
aF0.0167
aF0.0083
aF0.0
aI0
aI0
aI0
aI0
aI0
aI0
aI0
aI0
aI0
aI0
aI0
aI0
aI0
aI0
aI0
aI0
aI0
aI0
aI0
aI0
aI0
aI0
aI0
aI0
aI0
aI0
aI0
aI0
aI0
aI0
aI0
aI0
aI0
aI0
aI0
aI0
aI0
aI0
aI0
aI0
aI0
aI0
aI0
aI0
aI0
aI0
aI0
aI0
aI0
aI0
aI0
aI0
aI0
aI0
aI0
aI0
aI0
aI0
aI0
asI21
(lp10
F0.0031
aF0.0116
aF0.0145
aF0.0245
aF0.0275
aF0.0263
aF0.0351
aF0.0356
aF0.0424
aF0.0481
aF0.0514
aF0.0613
aF0.0612
aF0.0717
aF0.0748
aF0.0762
aF0.0804
aF0.0855
aF0.0991
aF0.1039
aF0.1061
aF0.1083
aF0.1105
aF0.1197
aF0.1276
aF0.1347
aF0.1387
aF0.1406
aF0.1429
aF0.1522
aF0.1581
aF0.157
aF0.1673
aF0.167
aF0.1745
aF0.1823
aF0.183
aF0.1938
aF0.1956
aF0.1957
aF0.2022
aF0.2065
aF0.2121
aF0.2209
aF0.2286
aF0.2349
aF0.2305
aF0.2392
aF0.2491
aF0.2489
aF0.251
aF0.2609
aF0.2687
aF0.2681
aF0.2735
aF0.2814
aF0.2802
aF0.2873
aF0.2947
aF0.3021
aF0.3095
aF0.3137
aF0.33
aF0.3295
aF0.3322
aF0.3098
aF0.3077
aF0.3303
aF0.3335
aF0.3474
aF0.3408
aF0.3185
aF0.3116
aF0.3248
aF0.3172
aF0.3011
aF0.3106
aF0.337
aF0.3058
aF0.3203
aF0.3224
aF0.3055
aF0.3257
aF0.3279
aF0.3429
aF0.34
aF0.3403
aF0.3356
aF0.312
aF0.3371
aF0.3107
aF0.3191
aF0.347
aF0.3114
aF0.3441
aF0.3394
aF0.3391
aF0.3359
aF0.3428
aF0.3075
aF0.3256
aF0.3017
aF0.3375
aF0.3044
aF0.338
aF0.3423
aF0.3202
aF0.315
aF0.301
aF0.3319
aF0.3375
aF0.3288
aF0.3353
aF0.3224
aF0.3005
aF0.3107
aF0.3444
aF0.3446
aF0.3143
aF0.3438
aF0.3332
aF0.3172
aF0.3314
aF0.3422
aF0.3367
aF0.35
aF0.3489
aF0.3297
aF0.3451
aF0.3016
aF0.3278
aF0.3201
aF0.322
aF0.3305
aF0.3452
aF0.3454
aF0.3447
aF0.3476
aF0.3411
aF0.3162
aF0.3095
aF0.3236
aF0.3451
aF0.3427
aF0.3416
aF0.3406
aF0.3002
aF0.3108
aF0.3132
aF0.3391
aF0.3106
aF0.3073
aF0.3179
aF0.3272
aF0.3244
aF0.3304
aF0.313
aF0.3453
aF0.3051
aF0.3198
aF0.3415
aF0.3415
aF0.3222
aF0.3473
aF0.3037
aF0.3355
aF0.3235
aF0.3395
aF0.3403
aF0.3004
aF0.3353
aF0.35
aF0.3089
aF0.3151
aF0.3112
aF0.3069
aF0.3141
aF0.3126
aF0.3029
aF0.3343
aF0.3222
aF0.295
aF0.29
aF0.285
aF0.28
aF0.275
aF0.27
aF0.265
aF0.26
aF0.255
aF0.25
aF0.245
aF0.24
aF0.235
aF0.23
aF0.225
aF0.22
aF0.215
aF0.21
aF0.205
aF0.2
aF0.195
aF0.19
aF0.185
aF0.18
aF0.175
aF0.17
aF0.165
aF0.16
aF0.155
aF0.15
aF0.145
aF0.14
aF0.135
aF0.13
aF0.125
aF0.12
aF0.115
aF0.11
aF0.105
aF0.1
aF0.095
aF0.09
aF0.085
aF0.08
aF0.075
aF0.07
aF0.065
aF0.06
aF0.055
aF0.05
aF0.045
aF0.04
aF0.035
aF0.03
aF0.025
aF0.02
aF0.015
aF0.01
aF0.005
aF0.0
aI0
aI0
aI0
aI0
aI0
aI0
aI0
aI0
aI0
aI0
aI0
aI0
aI0
aI0
aI0
aI0
aI0
aI0
aI0
aI0
aI0
aI0
aI0
aI0
aI0
aI0
aI0
aI0
aI0
aI0
aI0
aI0
aI0
aI0
aI0
aI0
aI0
aI0
aI0
aI0
aI0
aI0
aI0
aI0
aI0
aI0
aI0
aI0
aI0
aI0
aI0
aI0
aI0
aI0
aI0
aI0
aI0
aI0
aI0
asI22
(lp11
F0.0026
aF0.0067
aF0.0103
aF0.0245
aF0.0239
aF0.0339
aF0.0334
aF0.0408
aF0.0458
aF0.0491
aF0.0516
aF0.0555
aF0.0682
aF0.0716
aF0.0732
aF0.0772
aF0.0861
aF0.0918
aF0.091
aF0.0973
aF0.1002
aF0.1051
aF0.1196
aF0.125
aF0.1223
aF0.1293
aF0.1343
aF0.14
aF0.1435
aF0.1548
aF0.1538
aF0.1568
aF0.1604
aF0.1747
aF0.1735
aF0.1772
aF0.1882
aF0.1868
aF0.1991
aF0.199
aF0.2003
aF0.2052
aF0.2188
aF0.2158
aF0.2231
aF0.2301
aF0.2375
aF0.2432
aF0.244
aF0.2471
aF0.2585
aF0.265
aF0.2604
aF0.2668
aF0.2754
aF0.2839
aF0.2808
aF0.2914
aF0.2913
aF0.303
aF0.3017
aF0.301
aF0.3269
aF0.3486
aF0.3245
aF0.3161
aF0.3321
aF0.3438
aF0.3282
aF0.3384
aF0.3307
aF0.3339
aF0.3419
aF0.3472
aF0.3191
aF0.3096
aF0.3272
aF0.3006
aF0.347
aF0.3023
aF0.3029
aF0.3355
aF0.3314
aF0.3456
aF0.3484
aF0.3349
aF0.3092
aF0.3143
aF0.3447
aF0.3152
aF0.3058
aF0.3105
aF0.3006
aF0.3135
aF0.3348
aF0.3191
aF0.3444
aF0.3278
aF0.335
aF0.3426
aF0.329
aF0.3012
aF0.3323
aF0.3185
aF0.3176
aF0.3198
aF0.3285
aF0.3344
aF0.3105
aF0.3009
aF0.3096
aF0.3066
aF0.3381
aF0.3342
aF0.3216
aF0.3348
aF0.3176
aF0.3294
aF0.3449
aF0.3288
aF0.3145
aF0.3113
aF0.3384
aF0.3324
aF0.3188
aF0.307
aF0.3491
aF0.3158
aF0.3185
aF0.3052
aF0.3136
aF0.3276
aF0.3051
aF0.3033
aF0.3456
aF0.3415
aF0.3151
aF0.3285
aF0.332
aF0.3215
aF0.3108
aF0.3075
aF0.3286
aF0.3474
aF0.3352
aF0.3356
aF0.3184
aF0.3264
aF0.3155
aF0.329
aF0.3208
aF0.3135
aF0.3092
aF0.3077
aF0.3179
aF0.3314
aF0.3275
aF0.3472
aF0.3093
aF0.3316
aF0.3466
aF0.3499
aF0.3461
aF0.3175
aF0.3152
aF0.3148
aF0.3235
aF0.319
aF0.3237
aF0.3103
aF0.3083
aF0.3086
aF0.3161
aF0.3184
aF0.3208
aF0.3452
aF0.3151
aF0.307
aF0.3336
aF0.3015
aF0.3307
aF0.295
aF0.29
aF0.285
aF0.28
aF0.275
aF0.27
aF0.265
aF0.26
aF0.255
aF0.25
aF0.245
aF0.24
aF0.235
aF0.23
aF0.225
aF0.22
aF0.215
aF0.21
aF0.205
aF0.2
aF0.195
aF0.19
aF0.185
aF0.18
aF0.175
aF0.17
aF0.165
aF0.16
aF0.155
aF0.15
aF0.145
aF0.14
aF0.135
aF0.13
aF0.125
aF0.12
aF0.115
aF0.11
aF0.105
aF0.1
aF0.095
aF0.09
aF0.085
aF0.08
aF0.075
aF0.07
aF0.065
aF0.06
aF0.055
aF0.05
aF0.045
aF0.04
aF0.035
aF0.03
aF0.025
aF0.02
aF0.015
aF0.01
aF0.005
aF0.0
aI0
aI0
aI0
aI0
aI0
aI0
aI0
aI0
aI0
aI0
aI0
aI0
aI0
aI0
aI0
aI0
aI0
aI0
aI0
aI0
aI0
aI0
aI0
aI0
aI0
aI0
aI0
aI0
aI0
aI0
aI0
aI0
aI0
aI0
aI0
aI0
aI0
aI0
aI0
aI0
aI0
aI0
aI0
aI0
aI0
aI0
aI0
aI0
aI0
aI0
aI0
aI0
aI0
aI0
aI0
aI0
aI0
aI0
aI0
assVd_low
p12
(dp13
I11
(lp14
F0.0409
aF0.0423
aF0.0514
aF0.0522
aF0.0641
aF0.0322
aF0.0738
aF0.0761
aF0.0645
aF0.052
aF0.0741
aF0.0775
aF0.0872
aF0.1078
aF0.1137
aF0.1179
aF0.1053
aF0.1287
aF0.0919
aF0.1441
aF0.1367
aF0.1494
aF0.1503
aF0.121
aF0.1396
aF0.1329
aF0.1785
aF0.1809
aF0.1614
aF0.1484
aF0.1757
aF0.1699
aF0.2042
aF0.1956
aF0.2017
aF0.204
aF0.2209
aF0.1971
aF0.2251
aF0.1995
aF0.2285
aF0.2064
aF0.2278
aF0.2317
aF0.2378
aF0.2724
aF0.2663
aF0.2601
aF0.2757
aF0.2519
aF0.2884
aF0.2647
aF0.2811
aF0.2866
aF0.28
aF0.3008
aF0.3146
aF0.29
aF0.3126
aF0.3396
aF0.3337
aF0.3296
aF0.3426
aF0.3444
aF0.3051
aF0.3274
aF0.3048
aF0.343
aF0.3278
aF0.3014
aF0.3366
aF0.3245
aF0.3181
aF0.3017
aF0.3463
aF0.3202
aF0.3357
aF0.3129
aF0.3148
aF0.3006
aF0.3143
aF0.3192
aF0.3466
aF0.3152
aF0.3063
aF0.3421
aF0.3062
aF0.3066
aF0.3214
aF0.3106
aF0.3215
aF0.3305
aF0.3047
aF0.3123
aF0.3241
aF0.3223
aF0.3087
aF0.3151
aF0.3275
aF0.3118
aF0.3486
aF0.3399
aF0.308
aF0.3161
aF0.3428
aF0.3281
aF0.325
aF0.3057
aF0.3455
aF0.3076
aF0.3287
aF0.3019
aF0.3136
aF0.3499
aF0.3473
aF0.3169
aF0.3487
aF0.3388
aF0.3081
aF0.3322
aF0.3124
aF0.3332
aF0.3372
aF0.3427
aF0.3196
aF0.3172
aF0.3303
aF0.3025
aF0.3354
aF0.3311
aF0.3163
aF0.3271
aF0.3152
aF0.3174
aF0.3046
aF0.3221
aF0.3075
aF0.3002
aF0.3152
aF0.3265
aF0.3011
aF0.324
aF0.305
aF0.3087
aF0.3207
aF0.3279
aF0.3066
aF0.3141
aF0.3091
aF0.3305
aF0.3426
aF0.3114
aF0.3297
aF0.3289
aF0.3012
aF0.3176
aF0.3262
aF0.3343
aF0.3499
aF0.3443
aF0.3128
aF0.3331
aF0.3343
aF0.3218
aF0.3468
aF0.3222
aF0.3163
aF0.3004
aF0.3452
aF0.3163
aF0.3379
aF0.317
aF0.3233
aF0.3477
aF0.3077
aF0.3018
aF0.3194
aF0.3299
aF0.3144
aF0.3471
aF0.3148
aF0.295
aF0.29
aF0.285
aF0.28
aF0.275
aF0.27
aF0.265
aF0.26
aF0.255
aF0.25
aF0.245
aF0.24
aF0.235
aF0.23
aF0.225
aF0.22
aF0.215
aF0.21
aF0.205
aF0.2
aF0.195
aF0.19
aF0.185
aF0.18
aF0.175
aF0.17
aF0.165
aF0.16
aF0.155
aF0.15
aF0.145
aF0.14
aF0.135
aF0.13
aF0.125
aF0.12
aF0.115
aF0.11
aF0.105
aF0.1
aF0.095
aF0.09
aF0.085
aF0.08
aF0.075
aF0.07
aF0.065
aF0.06
aF0.055
aF0.05
aF0.045
aF0.04
aF0.035
aF0.03
aF0.025
aF0.02
aF0.015
aF0.01
aF0.005
aF0.0
aI0
aI0
aI0
aI0
aI0
aI0
aI0
aI0
aI0
aI0
aI0
aI0
aI0
aI0
aI0
aI0
aI0
aI0
aI0
aI0
aI0
aI0
aI0
aI0
aI0
aI0
aI0
aI0
aI0
aI0
aI0
aI0
aI0
aI0
aI0
aI0
aI0
aI0
aI0
aI0
aI0
aI0
aI0
aI0
aI0
aI0
aI0
aI0
aI0
aI0
aI0
aI0
aI0
aI0
aI0
aI0
aI0
aI0
aI0
asI12
(lp15
F0.0144
aF0.0106
aF0.0423
aF0.0552
aF0.0555
aF0.0562
aF0.0364
aF0.0642
aF0.0471
aF0.0489
aF0.061
aF0.0662
aF0.0686
aF0.0821
aF0.0894
aF0.1002
aF0.0936
aF0.1195
aF0.1287
aF0.1193
aF0.113
aF0.1493
aF0.1136
aF0.1358
aF0.1236
aF0.163
aF0.1548
aF0.1842
aF0.1839
aF0.1592
aF0.1571
aF0.1678
aF0.1842
aF0.2039
aF0.1929
aF0.187
aF0.1918
aF0.1944
aF0.2284
aF0.2352
aF0.2
aF0.2468
aF0.2349
aF0.2486
aF0.2383
aF0.2601
aF0.238
aF0.2483
aF0.2594
aF0.2926
aF0.2995
aF0.2876
aF0.277
aF0.3032
aF0.2877
aF0.2902
aF0.308
aF0.3156
aF0.3033
aF0.2962
aF0.3385
aF0.3286
aF0.3279
aF0.3445
aF0.3022
aF0.3262
aF0.3415
aF0.3377
aF0.3479
aF0.3347
aF0.335
aF0.3362
aF0.3213
aF0.3184
aF0.3401
aF0.326
aF0.3446
aF0.3012
aF0.3368
aF0.3142
aF0.3323
aF0.3411
aF0.3487
aF0.322
aF0.3421
aF0.3069
aF0.3419
aF0.3263
aF0.3126
aF0.3111
aF0.3186
aF0.3227
aF0.335
aF0.3048
aF0.3259
aF0.317
aF0.3283
aF0.311
aF0.3235
aF0.3144
aF0.3191
aF0.3386
aF0.3059
aF0.3077
aF0.3212
aF0.3241
aF0.305
aF0.316
aF0.3306
aF0.3202
aF0.3426
aF0.3475
aF0.315
aF0.3142
aF0.3213
aF0.3412
aF0.3043
aF0.3214
aF0.3373
aF0.3337
aF0.3199
aF0.3284
aF0.3002
aF0.3436
aF0.3054
aF0.3141
aF0.306
aF0.326
aF0.3136
aF0.3039
aF0.3357
aF0.3459
aF0.3144
aF0.3139
aF0.3486
aF0.333
aF0.3233
aF0.3229
aF0.3443
aF0.3247
aF0.3177
aF0.3335
aF0.313
aF0.3216
aF0.3319
aF0.3153
aF0.3368
aF0.3009
aF0.3362
aF0.345
aF0.3033
aF0.3066
aF0.3395
aF0.3169
aF0.3452
aF0.3358
aF0.3291
aF0.3048
aF0.3499
aF0.3326
aF0.3135
aF0.3497
aF0.3462
aF0.3442
aF0.3241
aF0.3457
aF0.3054
aF0.311
aF0.3329
aF0.3468
aF0.3105
aF0.3217
aF0.3247
aF0.3147
aF0.3096
aF0.3418
aF0.3481
aF0.3433
aF0.3131
aF0.3446
aF0.3192
aF0.295
aF0.29
aF0.285
aF0.28
aF0.275
aF0.27
aF0.265
aF0.26
aF0.255
aF0.25
aF0.245
aF0.24
aF0.235
aF0.23
aF0.225
aF0.22
aF0.215
aF0.21
aF0.205
aF0.2
aF0.195
aF0.19
aF0.185
aF0.18
aF0.175
aF0.17
aF0.165
aF0.16
aF0.155
aF0.15
aF0.145
aF0.14
aF0.135
aF0.13
aF0.125
aF0.12
aF0.115
aF0.11
aF0.105
aF0.1
aF0.095
aF0.09
aF0.085
aF0.08
aF0.075
aF0.07
aF0.065
aF0.06
aF0.055
aF0.05
aF0.045
aF0.04
aF0.035
aF0.03
aF0.025
aF0.02
aF0.015
aF0.01
aF0.005
aF0.0
aI0
aI0
aI0
aI0
aI0
aI0
aI0
aI0
aI0
aI0
aI0
aI0
aI0
aI0
aI0
aI0
aI0
aI0
aI0
aI0
aI0
aI0
aI0
aI0
aI0
aI0
aI0
aI0
aI0
aI0
aI0
aI0
aI0
aI0
aI0
aI0
aI0
aI0
aI0
aI0
aI0
aI0
aI0
aI0
aI0
aI0
aI0
aI0
aI0
aI0
aI0
aI0
aI0
aI0
aI0
aI0
aI0
aI0
aI0
asI21
(lp16
F0.0095
aF0.0111
aF0.0083
aF0.0179
aF0.0169
aF0.0151
aF0.0235
aF0.0207
aF0.0279
aF0.028
aF0.0343
aF0.0333
aF0.0389
aF0.0423
aF0.0466
aF0.0471
aF0.0536
aF0.0503
aF0.0595
aF0.0568
aF0.0595
aF0.0691
aF0.0666
aF0.0705
aF0.0746
aF0.0774
aF0.0812
aF0.0841
aF0.0833
aF0.0898
aF0.0871
aF0.0949
aF0.0911
aF0.0958
aF0.0983
aF0.1007
aF0.1021
aF0.1131
aF0.1086
aF0.1177
aF0.1162
aF0.1203
aF0.1288
aF0.1273
aF0.1333
aF0.1286
aF0.1398
aF0.1422
aF0.1453
aF0.1395
aF0.1419
aF0.1495
aF0.155
aF0.1548
aF0.1622
aF0.1655
aF0.1605
aF0.169
aF0.1681
aF0.1722
aF0.1773
aF0.1861
aF0.1914
aF0.1916
aF0.1957
aF0.2185
aF0.2031
aF0.2199
aF0.2114
aF0.1907
aF0.1728
aF0.211
aF0.1845
aF0.1938
aF0.1762
aF0.1731
aF0.2045
aF0.2159
aF0.1766
aF0.1721
aF0.1833
aF0.2024
aF0.2128
aF0.1993
aF0.2152
aF0.1888
aF0.2138
aF0.2047
aF0.2063
aF0.2154
aF0.1789
aF0.2063
aF0.1738
aF0.1933
aF0.1869
aF0.1974
aF0.2064
aF0.1839
aF0.1804
aF0.1755
aF0.2099
aF0.1984
aF0.1773
aF0.2085
aF0.1948
aF0.216
aF0.216
aF0.1745
aF0.2121
aF0.1832
aF0.1842
aF0.1917
aF0.2095
aF0.2179
aF0.1847
aF0.2094
aF0.1965
aF0.2155
aF0.2145
aF0.191
aF0.1734
aF0.1782
aF0.1738
aF0.1794
aF0.2047
aF0.1733
aF0.2043
aF0.1808
aF0.1981
aF0.1793
aF0.1883
aF0.1913
aF0.1892
aF0.2062
aF0.2148
aF0.1863
aF0.2102
aF0.2077
aF0.1892
aF0.1838
aF0.2174
aF0.1732
aF0.178
aF0.1733
aF0.1787
aF0.2047
aF0.212
aF0.2194
aF0.1947
aF0.1883
aF0.1868
aF0.1961
aF0.2014
aF0.1909
aF0.1768
aF0.2197
aF0.2086
aF0.1724
aF0.1968
aF0.2108
aF0.2168
aF0.2137
aF0.2091
aF0.2016
aF0.1831
aF0.2081
aF0.1879
aF0.2153
aF0.1874
aF0.219
aF0.1791
aF0.1997
aF0.2165
aF0.1708
aF0.2103
aF0.1762
aF0.1782
aF0.1741
aF0.2057
aF0.1868
aF0.2053
aF0.1672
aF0.1643
aF0.1615
aF0.1587
aF0.1558
aF0.153
aF0.1502
aF0.1473
aF0.1445
aF0.1417
aF0.1388
aF0.136
aF0.1332
aF0.1303
aF0.1275
aF0.1247
aF0.1218
aF0.119
aF0.1162
aF0.1133
aF0.1105
aF0.1077
aF0.1048
aF0.102
aF0.0992
aF0.0963
aF0.0935
aF0.0907
aF0.0878
aF0.085
aF0.0822
aF0.0793
aF0.0765
aF0.0737
aF0.0708
aF0.068
aF0.0652
aF0.0623
aF0.0595
aF0.0567
aF0.0538
aF0.051
aF0.0482
aF0.0453
aF0.0425
aF0.0397
aF0.0368
aF0.034
aF0.0312
aF0.0283
aF0.0255
aF0.0227
aF0.0198
aF0.017
aF0.0142
aF0.0113
aF0.0085
aF0.0057
aF0.0028
aF0.0
aI0
aI0
aI0
aI0
aI0
aI0
aI0
aI0
aI0
aI0
aI0
aI0
aI0
aI0
aI0
aI0
aI0
aI0
aI0
aI0
aI0
aI0
aI0
aI0
aI0
aI0
aI0
aI0
aI0
aI0
aI0
aI0
aI0
aI0
aI0
aI0
aI0
aI0
aI0
aI0
aI0
aI0
aI0
aI0
aI0
aI0
aI0
aI0
aI0
aI0
aI0
aI0
aI0
aI0
aI0
aI0
aI0
aI0
aI0
asI22
(lp17
F0.0072
aF0.0127
aF0.0149
aF0.0137
aF0.0121
aF0.0163
aF0.0246
aF0.0213
aF0.0258
aF0.0353
aF0.0364
aF0.0399
aF0.0383
aF0.0376
aF0.0419
aF0.0428
aF0.0467
aF0.0539
aF0.052
aF0.06
aF0.0636
aF0.0626
aF0.063
aF0.0696
aF0.0764
aF0.0798
aF0.0805
aF0.0821
aF0.0852
aF0.0903
aF0.0883
aF0.0909
aF0.0997
aF0.0935
aF0.1045
aF0.1088
aF0.1043
aF0.1134
aF0.1159
aF0.1192
aF0.1137
aF0.1183
aF0.1286
aF0.1314
aF0.1266
aF0.136
aF0.1328
aF0.1372
aF0.1401
aF0.1401
aF0.1447
aF0.1469
aF0.15
aF0.1567
aF0.155
aF0.1596
aF0.1665
aF0.168
aF0.1689
aF0.1718
aF0.1778
aF0.1777
aF0.1915
aF0.1972
aF0.1914
aF0.1712
aF0.1948
aF0.1788
aF0.2088
aF0.1819
aF0.2173
aF0.1753
aF0.2082
aF0.2026
aF0.1841
aF0.1826
aF0.1825
aF0.2058
aF0.1791
aF0.2073
aF0.175
aF0.2094
aF0.1923
aF0.2106
aF0.2166
aF0.2184
aF0.1933
aF0.1765
aF0.1933
aF0.174
aF0.2073
aF0.217
aF0.1945
aF0.2067
aF0.1875
aF0.2014
aF0.2137
aF0.216
aF0.2117
aF0.202
aF0.1878
aF0.1923
aF0.218
aF0.2156
aF0.1743
aF0.2034
aF0.1993
aF0.176
aF0.1935
aF0.1871
aF0.1881
aF0.1832
aF0.1887
aF0.1814
aF0.1833
aF0.1783
aF0.1913
aF0.1843
aF0.2046
aF0.1827
aF0.1879
aF0.2169
aF0.1855
aF0.1971
aF0.1872
aF0.172
aF0.1978
aF0.2184
aF0.1712
aF0.1811
aF0.2001
aF0.2047
aF0.1732
aF0.1943
aF0.1836
aF0.2109
aF0.2061
aF0.2105
aF0.2185
aF0.1787
aF0.1745
aF0.2163
aF0.1964
aF0.2039
aF0.1723
aF0.1981
aF0.1842
aF0.174
aF0.1759
aF0.2135
aF0.1799
aF0.1779
aF0.2016
aF0.1983
aF0.2127
aF0.1968
aF0.2074
aF0.1909
aF0.21
aF0.1788
aF0.19
aF0.1721
aF0.2049
aF0.2006
aF0.2018
aF0.2125
aF0.1777
aF0.2063
aF0.1958
aF0.185
aF0.1909
aF0.1898
aF0.2013
aF0.2193
aF0.1895
aF0.2076
aF0.2033
aF0.1801
aF0.173
aF0.2178
aF0.2101
aF0.1672
aF0.1643
aF0.1615
aF0.1587
aF0.1558
aF0.153
aF0.1502
aF0.1473
aF0.1445
aF0.1417
aF0.1388
aF0.136
aF0.1332
aF0.1303
aF0.1275
aF0.1247
aF0.1218
aF0.119
aF0.1162
aF0.1133
aF0.1105
aF0.1077
aF0.1048
aF0.102
aF0.0992
aF0.0963
aF0.0935
aF0.0907
aF0.0878
aF0.085
aF0.0822
aF0.0793
aF0.0765
aF0.0737
aF0.0708
aF0.068
aF0.0652
aF0.0623
aF0.0595
aF0.0567
aF0.0538
aF0.051
aF0.0482
aF0.0453
aF0.0425
aF0.0397
aF0.0368
aF0.034
aF0.0312
aF0.0283
aF0.0255
aF0.0227
aF0.0198
aF0.017
aF0.0142
aF0.0113
aF0.0085
aF0.0057
aF0.0028
aF0.0
aI0
aI0
aI0
aI0
aI0
aI0
aI0
aI0
aI0
aI0
aI0
aI0
aI0
aI0
aI0
aI0
aI0
aI0
aI0
aI0
aI0
aI0
aI0
aI0
aI0
aI0
aI0
aI0
aI0
aI0
aI0
aI0
aI0
aI0
aI0
aI0
aI0
aI0
aI0
aI0
aI0
aI0
aI0
aI0
aI0
aI0
aI0
aI0
aI0
aI0
aI0
aI0
aI0
aI0
aI0
aI0
aI0
aI0
aI0
assVx
p18
(lp19
I0
aI1
aI2
aI3
aI4
aI5
aI6
aI7
aI8
aI9
aI10
aI11
aI12
aI13
aI14
aI15
aI16
aI17
aI18
aI19
aI20
aI21
aI22
aI23
aI24
aI25
aI26
aI27
aI28
aI29
aI30
aI31
aI32
aI33
aI34
aI35
aI36
aI37
aI38
aI39
aI40
aI41
aI42
aI43
aI44
aI45
aI46
aI47
aI48
aI49
aI50
aI51
aI52
aI53
aI54
aI55
aI56
aI57
aI58
aI59
aI60
aI61
aI62
aI63
aI64
aI65
aI66
aI67
aI68
aI69
aI70
aI71
aI72
aI73
aI74
aI75
aI76
aI77
aI78
aI79
aI80
aI81
aI82
aI83
aI84
aI85
aI86
aI87
aI88
aI89
aI90
aI91
aI92
aI93
aI94
aI95
aI96
aI97
aI98
aI99
aI100
aI101
aI102
aI103
aI104
aI105
aI106
aI107
aI108
aI109
aI110
aI111
aI112
aI113
aI114
aI115
aI116
aI117
aI118
aI119
aI120
aI121
aI122
aI123
aI124
aI125
aI126
aI127
aI128
aI129
aI130
aI131
aI132
aI133
aI134
aI135
aI136
aI137
aI138
aI139
aI140
aI141
aI142
aI143
aI144
aI145
aI146
aI147
aI148
aI149
aI150
aI151
aI152
aI153
aI154
aI155
aI156
aI157
aI158
aI159
aI160
aI161
aI162
aI163
aI164
aI165
aI166
aI167
aI168
aI169
aI170
aI171
aI172
aI173
aI174
aI175
aI176
aI177
aI178
aI179
aI180
aI181
aI182
aI183
aI184
aI185
aI186
aI187
aI188
aI189
aI190
aI191
aI192
aI193
aI194
aI195
aI196
aI197
aI198
aI199
aI200
aI201
aI202
aI203
aI204
aI205
aI206
aI207
aI208
aI209
aI210
aI211
aI212
aI213
aI214
aI215
aI216
aI217
aI218
aI219
aI220
aI221
aI222
aI223
aI224
aI225
aI226
aI227
aI228
aI229
aI230
aI231
aI232
aI233
aI234
aI235
aI236
aI237
aI238
aI239
aI240
aI241
aI242
aI243
aI244
aI245
aI246
aI247
aI248
aI249
aI250
aI251
aI252
aI253
aI254
aI255
aI256
aI257
aI258
aI259
aI260
aI261
aI262
aI263
aI264
aI265
aI266
aI267
aI268
aI269
aI270
aI271
aI272
aI273
aI274
aI275
aI276
aI277
aI278
aI279
aI280
aI281
aI282
aI283
aI284
aI285
aI286
aI287
aI288
aI289
aI290
aI291
aI292
aI293
aI294
aI295
aI296
aI297
aI298
aI299
asVy
p20
(lp21
I0
aI1
aI2
aI3
aI4
aI5
aI6
aI7
aI8
aI9
aI10
aI11
aI12
aI13
aI14
aI15
aI16
aI17
aI18
aI19
aI20
aI21
aI22
aI23
aI24
aI25
aI26
aI27
aI28
aI29
aI30
aI31
aI32
aI33
aI34
aI35
aI36
aI37
aI38
aI39
aI40
aI41
aI42
aI43
aI44
aI45
aI46
aI47
aI48
aI49
aI50
aI51
aI52
aI53
aI54
aI55
aI56
aI57
aI58
aI59
aI60
aI61
aI62
aI63
aI64
aI65
aI66
aI67
aI68
aI69
aI70
aI71
aI72
aI73
aI74
aI75
aI76
aI77
aI78
aI79
aI80
aI81
aI82
aI83
aI84
aI85
aI86
aI87
aI88
aI89
aI90
aI91
aI92
aI93
aI94
aI95
aI96
aI97
aI98
aI99
aI100
aI101
aI102
aI103
aI104
aI105
aI106
aI107
aI108
aI109
aI110
aI111
aI112
aI113
aI114
aI115
aI116
aI117
aI118
aI119
aI120
aI121
aI122
aI123
aI124
aI125
aI126
aI127
aI128
aI129
aI130
aI131
aI132
aI133
aI134
aI135
aI136
aI137
aI138
aI139
aI140
aI141
aI142
aI143
aI144
aI145
aI146
aI147
aI148
aI149
aI150
aI151
aI152
aI153
aI154
aI155
aI156
aI157
aI158
aI159
aI160
aI161
aI162
aI163
aI164
aI165
aI166
aI167
aI168
aI169
aI170
aI171
aI172
aI173
aI174
aI175
aI176
aI177
aI178
aI179
aI180
aI181
aI182
aI183
aI184
aI185
aI186
aI187
aI188
aI189
aI190
aI191
aI192
aI193
aI194
aI195
aI196
aI197
aI198
aI199
aI200
aI201
aI202
aI203
aI204
aI205
aI206
aI207
aI208
aI209
aI210
aI211
aI212
aI213
aI214
aI215
aI216
aI217
aI218
aI219
aI220
aI221
aI222
aI223
aI224
aI225
aI226
aI227
aI228
aI229
aI230
aI231
aI232
aI233
aI234
aI235
aI236
aI237
aI238
aI239
aI240
aI241
aI242
aI243
aI244
aI245
aI246
aI247
aI248
aI249
aI250
aI251
aI252
aI253
aI254
aI255
aI256
aI257
aI258
aI259
aI260
aI261
aI262
aI263
aI264
aI265
aI266
aI267
aI268
aI269
aI270
aI271
aI272
aI273
aI274
aI275
aI276
aI277
aI278
aI279
aI280
aI281
aI282
aI283
aI284
aI285
aI286
aI287
aI288
aI289
aI290
aI291
aI292
aI293
aI294
aI295
aI296
aI297
aI298
aI299
asVd_2
p22
g7
sVd_low_2
p23
g13
sb.