ccopy_reg
_reconstructor
p0
(cPycharmProjects.MPC.est_de
TrafficDemand
p1
c__builtin__
object
p2
Ntp3
Rp4
(dp5
Vd
p6
(dp7
I11
(lp8
F0.0176
aF0.0492
aF0.04
aF0.0401
aF0.0439
aF0.044
aF0.0687
aF0.071
aF0.0754
aF0.1217
aF0.1297
aF0.1195
aF0.1091
aF0.129
aF0.1572
aF0.149
aF0.1743
aF0.1604
aF0.1827
aF0.1655
aF0.2032
aF0.1828
aF0.2317
aF0.2052
aF0.2153
aF0.2117
aF0.2329
aF0.2292
aF0.2352
aF0.2517
aF0.2741
aF0.2946
aF0.2989
aF0.2855
aF0.3275
aF0.329
aF0.3306
aF0.3169
aF0.3431
aF0.3448
aF0.3685
aF0.3523
aF0.3794
aF0.4049
aF0.3862
aF0.3928
aF0.3958
aF0.4161
aF0.4163
aF0.4534
aF0.4193
aF0.4489
aF0.4791
aF0.4714
aF0.4636
aF0.468
aF0.4839
aF0.5066
aF0.5033
aF0.4936
aF0.5128
aF0.5423
aF0.5388
aF0.509
aF0.5002
aF0.5154
aF0.5412
aF0.5266
aF0.527
aF0.5393
aF0.5173
aF0.5094
aF0.5036
aF0.5007
aF0.5059
aF0.531
aF0.5225
aF0.5133
aF0.5162
aF0.5262
aF0.5229
aF0.5317
aF0.516
aF0.5316
aF0.5169
aF0.5246
aF0.5345
aF0.5124
aF0.5387
aF0.5302
aF0.533
aF0.5343
aF0.5427
aF0.5185
aF0.5236
aF0.5463
aF0.5111
aF0.5394
aF0.5324
aF0.5423
aF0.5199
aF0.5039
aF0.5341
aF0.5308
aF0.5039
aF0.5233
aF0.5278
aF0.5137
aF0.5123
aF0.5272
aF0.5156
aF0.5367
aF0.5173
aF0.5203
aF0.5287
aF0.5078
aF0.5167
aF0.5162
aF0.5465
aF0.5474
aF0.5156
aF0.5098
aF0.5484
aF0.5045
aF0.5091
aF0.5459
aF0.5047
aF0.5321
aF0.5272
aF0.543
aF0.5318
aF0.5497
aF0.5093
aF0.5233
aF0.5092
aF0.5476
aF0.51
aF0.5038
aF0.5301
aF0.536
aF0.5187
aF0.5422
aF0.5083
aF0.5288
aF0.5211
aF0.5197
aF0.5327
aF0.5301
aF0.5485
aF0.5463
aF0.5027
aF0.5355
aF0.5414
aF0.5073
aF0.5055
aF0.5456
aF0.5246
aF0.5157
aF0.5412
aF0.5357
aF0.5377
aF0.5058
aF0.5011
aF0.5173
aF0.5088
aF0.5334
aF0.507
aF0.5058
aF0.5129
aF0.5388
aF0.5118
aF0.5247
aF0.5158
aF0.5465
aF0.5233
aF0.5409
aF0.5166
aF0.5301
aF0.547
aF0.5418
aF0.5142
aF0.4917
aF0.4833
aF0.475
aF0.4667
aF0.4583
aF0.45
aF0.4417
aF0.4333
aF0.425
aF0.4167
aF0.4083
aF0.4
aF0.3917
aF0.3833
aF0.375
aF0.3667
aF0.3583
aF0.35
aF0.3417
aF0.3333
aF0.325
aF0.3167
aF0.3083
aF0.3
aF0.2917
aF0.2833
aF0.275
aF0.2667
aF0.2583
aF0.25
aF0.2417
aF0.2333
aF0.225
aF0.2167
aF0.2083
aF0.2
aF0.1917
aF0.1833
aF0.175
aF0.1667
aF0.1583
aF0.15
aF0.1417
aF0.1333
aF0.125
aF0.1167
aF0.1083
aF0.1
aF0.0917
aF0.0833
aF0.075
aF0.0667
aF0.0583
aF0.05
aF0.0417
aF0.0333
aF0.025
aF0.0167
aF0.0083
aF0.0
aI0
aI0
aI0
aI0
aI0
aI0
aI0
aI0
aI0
aI0
aI0
aI0
aI0
aI0
aI0
aI0
aI0
aI0
aI0
aI0
aI0
aI0
aI0
aI0
aI0
aI0
aI0
aI0
aI0
aI0
aI0
aI0
aI0
aI0
aI0
aI0
aI0
aI0
aI0
aI0
aI0
aI0
aI0
aI0
aI0
aI0
aI0
aI0
aI0
aI0
aI0
aI0
aI0
aI0
aI0
aI0
aI0
aI0
aI0
asI12
(lp9
F0.0265
aF0.0384
aF0.027
aF0.0742
aF0.0742
aF0.0509
aF0.0782
aF0.0665
aF0.1034
aF0.0837
aF0.0963
aF0.1133
aF0.1147
aF0.1324
aF0.1303
aF0.1261
aF0.166
aF0.1727
aF0.165
aF0.1874
aF0.1841
aF0.2015
aF0.2106
aF0.2351
aF0.2381
aF0.2435
aF0.2259
aF0.2411
aF0.2567
aF0.2466
aF0.2728
aF0.3052
aF0.3155
aF0.2797
aF0.3024
aF0.3246
aF0.3453
aF0.3288
aF0.3563
aF0.363
aF0.3513
aF0.3627
aF0.3577
aF0.398
aF0.4143
aF0.4028
aF0.424
aF0.3967
aF0.418
aF0.4451
aF0.4184
aF0.4703
aF0.4657
aF0.4778
aF0.4849
aF0.4629
aF0.4725
aF0.5084
aF0.5189
aF0.5161
aF0.5157
aF0.5432
aF0.5279
aF0.521
aF0.5294
aF0.5369
aF0.5162
aF0.5231
aF0.5182
aF0.5019
aF0.5249
aF0.5018
aF0.5274
aF0.5487
aF0.5074
aF0.5096
aF0.5128
aF0.5174
aF0.5074
aF0.5156
aF0.5146
aF0.5266
aF0.5413
aF0.532
aF0.5197
aF0.512
aF0.5343
aF0.5364
aF0.516
aF0.5083
aF0.5134
aF0.5359
aF0.5178
aF0.5002
aF0.5205
aF0.5147
aF0.5229
aF0.5048
aF0.5358
aF0.5305
aF0.5256
aF0.5382
aF0.5052
aF0.5484
aF0.5065
aF0.5211
aF0.521
aF0.5202
aF0.5246
aF0.5254
aF0.5244
aF0.5187
aF0.5413
aF0.5148
aF0.5047
aF0.5428
aF0.5234
aF0.5362
aF0.5375
aF0.533
aF0.5482
aF0.5364
aF0.507
aF0.518
aF0.5111
aF0.5479
aF0.5348
aF0.5304
aF0.5434
aF0.5326
aF0.5205
aF0.5216
aF0.5332
aF0.5097
aF0.5173
aF0.546
aF0.5174
aF0.5063
aF0.5452
aF0.5156
aF0.5462
aF0.5452
aF0.5461
aF0.5302
aF0.5446
aF0.5115
aF0.506
aF0.5315
aF0.5221
aF0.5416
aF0.5472
aF0.5263
aF0.5492
aF0.5044
aF0.5047
aF0.5261
aF0.5479
aF0.5333
aF0.5418
aF0.5031
aF0.5489
aF0.5172
aF0.5288
aF0.532
aF0.5319
aF0.5434
aF0.5284
aF0.5233
aF0.5362
aF0.5055
aF0.5291
aF0.5264
aF0.5187
aF0.5325
aF0.5045
aF0.543
aF0.5109
aF0.5137
aF0.536
aF0.5066
aF0.5117
aF0.4917
aF0.4833
aF0.475
aF0.4667
aF0.4583
aF0.45
aF0.4417
aF0.4333
aF0.425
aF0.4167
aF0.4083
aF0.4
aF0.3917
aF0.3833
aF0.375
aF0.3667
aF0.3583
aF0.35
aF0.3417
aF0.3333
aF0.325
aF0.3167
aF0.3083
aF0.3
aF0.2917
aF0.2833
aF0.275
aF0.2667
aF0.2583
aF0.25
aF0.2417
aF0.2333
aF0.225
aF0.2167
aF0.2083
aF0.2
aF0.1917
aF0.1833
aF0.175
aF0.1667
aF0.1583
aF0.15
aF0.1417
aF0.1333
aF0.125
aF0.1167
aF0.1083
aF0.1
aF0.0917
aF0.0833
aF0.075
aF0.0667
aF0.0583
aF0.05
aF0.0417
aF0.0333
aF0.025
aF0.0167
aF0.0083
aF0.0
aI0
aI0
aI0
aI0
aI0
aI0
aI0
aI0
aI0
aI0
aI0
aI0
aI0
aI0
aI0
aI0
aI0
aI0
aI0
aI0
aI0
aI0
aI0
aI0
aI0
aI0
aI0
aI0
aI0
aI0
aI0
aI0
aI0
aI0
aI0
aI0
aI0
aI0
aI0
aI0
aI0
aI0
aI0
aI0
aI0
aI0
aI0
aI0
aI0
aI0
aI0
aI0
aI0
aI0
aI0
aI0
aI0
aI0
aI0
asI21
(lp10
F0.0072
aF0.0054
aF0.0195
aF0.0225
aF0.0217
aF0.0305
aF0.0309
aF0.0423
aF0.0439
aF0.0494
aF0.0562
aF0.0646
aF0.0696
aF0.0712
aF0.0775
aF0.0782
aF0.0812
aF0.0932
aF0.0946
aF0.1037
aF0.108
aF0.106
aF0.1137
aF0.1156
aF0.122
aF0.132
aF0.1396
aF0.1416
aF0.1461
aF0.1497
aF0.1594
aF0.1629
aF0.1646
aF0.1692
aF0.1785
aF0.1807
aF0.1855
aF0.1934
aF0.1971
aF0.2024
aF0.2088
aF0.2124
aF0.2191
aF0.219
aF0.2266
aF0.2334
aF0.2398
aF0.2363
aF0.2431
aF0.2491
aF0.2558
aF0.2558
aF0.2668
aF0.2691
aF0.2764
aF0.2829
aF0.2858
aF0.2914
aF0.2931
aF0.3036
aF0.3027
aF0.3067
aF0.3026
aF0.3211
aF0.3237
aF0.3469
aF0.3153
aF0.3183
aF0.3097
aF0.3375
aF0.3465
aF0.3389
aF0.3254
aF0.3094
aF0.3323
aF0.3466
aF0.3093
aF0.3244
aF0.3351
aF0.3483
aF0.3213
aF0.3261
aF0.3405
aF0.3442
aF0.3452
aF0.3383
aF0.3411
aF0.3223
aF0.3174
aF0.3316
aF0.3406
aF0.3451
aF0.323
aF0.3489
aF0.3029
aF0.3198
aF0.3009
aF0.3168
aF0.3025
aF0.3407
aF0.3132
aF0.3344
aF0.3173
aF0.3184
aF0.3432
aF0.3107
aF0.3341
aF0.3242
aF0.3259
aF0.3329
aF0.3152
aF0.3105
aF0.308
aF0.3492
aF0.3325
aF0.3386
aF0.3231
aF0.3131
aF0.3317
aF0.317
aF0.3316
aF0.3238
aF0.3157
aF0.3119
aF0.3368
aF0.3018
aF0.3179
aF0.3406
aF0.3268
aF0.3066
aF0.3476
aF0.3221
aF0.349
aF0.3166
aF0.3044
aF0.3491
aF0.345
aF0.3332
aF0.303
aF0.3304
aF0.3463
aF0.3163
aF0.3371
aF0.3359
aF0.3454
aF0.3482
aF0.3242
aF0.3004
aF0.3365
aF0.3411
aF0.3253
aF0.3157
aF0.3301
aF0.3281
aF0.3467
aF0.3359
aF0.3055
aF0.3276
aF0.3458
aF0.3205
aF0.3129
aF0.316
aF0.3038
aF0.3299
aF0.3486
aF0.3154
aF0.322
aF0.3217
aF0.3396
aF0.3311
aF0.3291
aF0.3477
aF0.308
aF0.3297
aF0.3374
aF0.3282
aF0.3253
aF0.3115
aF0.3006
aF0.3169
aF0.3033
aF0.295
aF0.29
aF0.285
aF0.28
aF0.275
aF0.27
aF0.265
aF0.26
aF0.255
aF0.25
aF0.245
aF0.24
aF0.235
aF0.23
aF0.225
aF0.22
aF0.215
aF0.21
aF0.205
aF0.2
aF0.195
aF0.19
aF0.185
aF0.18
aF0.175
aF0.17
aF0.165
aF0.16
aF0.155
aF0.15
aF0.145
aF0.14
aF0.135
aF0.13
aF0.125
aF0.12
aF0.115
aF0.11
aF0.105
aF0.1
aF0.095
aF0.09
aF0.085
aF0.08
aF0.075
aF0.07
aF0.065
aF0.06
aF0.055
aF0.05
aF0.045
aF0.04
aF0.035
aF0.03
aF0.025
aF0.02
aF0.015
aF0.01
aF0.005
aF0.0
aI0
aI0
aI0
aI0
aI0
aI0
aI0
aI0
aI0
aI0
aI0
aI0
aI0
aI0
aI0
aI0
aI0
aI0
aI0
aI0
aI0
aI0
aI0
aI0
aI0
aI0
aI0
aI0
aI0
aI0
aI0
aI0
aI0
aI0
aI0
aI0
aI0
aI0
aI0
aI0
aI0
aI0
aI0
aI0
aI0
aI0
aI0
aI0
aI0
aI0
aI0
aI0
aI0
aI0
aI0
aI0
aI0
aI0
aI0
asI22
(lp11
F0.0046
aF0.0108
aF0.017
aF0.022
aF0.0263
aF0.0323
aF0.036
aF0.0394
aF0.0488
aF0.0477
aF0.0507
aF0.0587
aF0.0637
aF0.0708
aF0.0797
aF0.0774
aF0.0836
aF0.0947
aF0.0996
aF0.1042
aF0.1038
aF0.1056
aF0.1126
aF0.1214
aF0.123
aF0.1303
aF0.1372
aF0.1432
aF0.1481
aF0.1504
aF0.1504
aF0.1554
aF0.1626
aF0.1658
aF0.1729
aF0.1795
aF0.1831
aF0.1892
aF0.1945
aF0.197
aF0.2062
aF0.214
aF0.2122
aF0.2222
aF0.2238
aF0.2296
aF0.2399
aF0.2364
aF0.2484
aF0.2546
aF0.2537
aF0.2572
aF0.2677
aF0.2657
aF0.2763
aF0.2823
aF0.2847
aF0.2922
aF0.2972
aF0.2955
aF0.3009
aF0.315
aF0.3211
aF0.3361
aF0.3459
aF0.3167
aF0.3326
aF0.3486
aF0.3193
aF0.3201
aF0.3218
aF0.3231
aF0.3396
aF0.3417
aF0.3415
aF0.3312
aF0.3099
aF0.3177
aF0.3228
aF0.3127
aF0.3431
aF0.3017
aF0.3494
aF0.3074
aF0.3456
aF0.3228
aF0.3297
aF0.3262
aF0.348
aF0.3203
aF0.3307
aF0.3134
aF0.3095
aF0.3066
aF0.3149
aF0.3369
aF0.3457
aF0.3086
aF0.3213
aF0.3466
aF0.3438
aF0.3139
aF0.3237
aF0.3108
aF0.3154
aF0.3154
aF0.3236
aF0.3444
aF0.3499
aF0.3067
aF0.3174
aF0.3347
aF0.3316
aF0.3393
aF0.32
aF0.303
aF0.3453
aF0.3235
aF0.3175
aF0.334
aF0.34
aF0.3223
aF0.3135
aF0.3182
aF0.3367
aF0.3224
aF0.3286
aF0.3207
aF0.3283
aF0.3204
aF0.328
aF0.3376
aF0.3236
aF0.3406
aF0.3158
aF0.3097
aF0.3414
aF0.3202
aF0.3137
aF0.3196
aF0.323
aF0.327
aF0.3444
aF0.3454
aF0.3136
aF0.3158
aF0.3145
aF0.3126
aF0.3468
aF0.3256
aF0.3126
aF0.3285
aF0.348
aF0.3299
aF0.3445
aF0.3128
aF0.3195
aF0.341
aF0.3334
aF0.3118
aF0.3288
aF0.339
aF0.3285
aF0.3174
aF0.3268
aF0.335
aF0.3101
aF0.3212
aF0.3265
aF0.3256
aF0.3364
aF0.3167
aF0.3368
aF0.3448
aF0.318
aF0.3016
aF0.3015
aF0.313
aF0.3345
aF0.3493
aF0.3052
aF0.295
aF0.29
aF0.285
aF0.28
aF0.275
aF0.27
aF0.265
aF0.26
aF0.255
aF0.25
aF0.245
aF0.24
aF0.235
aF0.23
aF0.225
aF0.22
aF0.215
aF0.21
aF0.205
aF0.2
aF0.195
aF0.19
aF0.185
aF0.18
aF0.175
aF0.17
aF0.165
aF0.16
aF0.155
aF0.15
aF0.145
aF0.14
aF0.135
aF0.13
aF0.125
aF0.12
aF0.115
aF0.11
aF0.105
aF0.1
aF0.095
aF0.09
aF0.085
aF0.08
aF0.075
aF0.07
aF0.065
aF0.06
aF0.055
aF0.05
aF0.045
aF0.04
aF0.035
aF0.03
aF0.025
aF0.02
aF0.015
aF0.01
aF0.005
aF0.0
aI0
aI0
aI0
aI0
aI0
aI0
aI0
aI0
aI0
aI0
aI0
aI0
aI0
aI0
aI0
aI0
aI0
aI0
aI0
aI0
aI0
aI0
aI0
aI0
aI0
aI0
aI0
aI0
aI0
aI0
aI0
aI0
aI0
aI0
aI0
aI0
aI0
aI0
aI0
aI0
aI0
aI0
aI0
aI0
aI0
aI0
aI0
aI0
aI0
aI0
aI0
aI0
aI0
aI0
aI0
aI0
aI0
aI0
aI0
assVd_low
p12
(dp13
I11
(lp14
F0.0113
aF0.0412
aF0.0126
aF0.0502
aF0.0662
aF0.0588
aF0.0338
aF0.0771
aF0.0826
aF0.0927
aF0.0918
aF0.0725
aF0.1076
aF0.0932
aF0.1199
aF0.0955
aF0.0936
aF0.0933
aF0.1224
aF0.1397
aF0.1135
aF0.1299
aF0.1304
aF0.1554
aF0.1585
aF0.1622
aF0.1325
aF0.1559
aF0.1836
aF0.1803
aF0.1887
aF0.1777
aF0.1629
aF0.1845
aF0.1737
aF0.1857
aF0.2231
aF0.2024
aF0.2108
aF0.2103
aF0.2156
aF0.2525
aF0.2134
aF0.2555
aF0.2289
aF0.2717
aF0.2381
aF0.2629
aF0.2891
aF0.2579
aF0.2758
aF0.2859
aF0.2603
aF0.2828
aF0.3122
aF0.3099
aF0.3296
aF0.3272
aF0.3076
aF0.2973
aF0.3299
aF0.3074
aF0.3452
aF0.335
aF0.3422
aF0.3278
aF0.3098
aF0.3442
aF0.3219
aF0.3492
aF0.3108
aF0.3423
aF0.3401
aF0.3471
aF0.3057
aF0.335
aF0.3324
aF0.3346
aF0.3304
aF0.3247
aF0.3283
aF0.3039
aF0.3043
aF0.3486
aF0.3376
aF0.3262
aF0.3061
aF0.3378
aF0.3483
aF0.3328
aF0.3487
aF0.3132
aF0.3055
aF0.3382
aF0.3394
aF0.3256
aF0.3221
aF0.3132
aF0.306
aF0.3204
aF0.3132
aF0.3461
aF0.3116
aF0.3363
aF0.3194
aF0.3449
aF0.3116
aF0.3456
aF0.3061
aF0.3329
aF0.3359
aF0.3377
aF0.3458
aF0.3102
aF0.3015
aF0.3388
aF0.3442
aF0.3034
aF0.3357
aF0.3123
aF0.3433
aF0.3461
aF0.3179
aF0.3444
aF0.3183
aF0.3188
aF0.3217
aF0.3247
aF0.3245
aF0.3102
aF0.3496
aF0.3051
aF0.3127
aF0.3285
aF0.3323
aF0.313
aF0.3218
aF0.3077
aF0.303
aF0.3137
aF0.3402
aF0.3057
aF0.3217
aF0.3049
aF0.3157
aF0.3185
aF0.3235
aF0.3118
aF0.3099
aF0.3116
aF0.3432
aF0.3202
aF0.3196
aF0.3356
aF0.3394
aF0.3135
aF0.3039
aF0.3134
aF0.3041
aF0.3301
aF0.3091
aF0.3284
aF0.3143
aF0.306
aF0.3237
aF0.326
aF0.3082
aF0.3482
aF0.3023
aF0.3389
aF0.3416
aF0.3028
aF0.3417
aF0.3463
aF0.3495
aF0.3034
aF0.3421
aF0.3178
aF0.3077
aF0.3276
aF0.3075
aF0.295
aF0.29
aF0.285
aF0.28
aF0.275
aF0.27
aF0.265
aF0.26
aF0.255
aF0.25
aF0.245
aF0.24
aF0.235
aF0.23
aF0.225
aF0.22
aF0.215
aF0.21
aF0.205
aF0.2
aF0.195
aF0.19
aF0.185
aF0.18
aF0.175
aF0.17
aF0.165
aF0.16
aF0.155
aF0.15
aF0.145
aF0.14
aF0.135
aF0.13
aF0.125
aF0.12
aF0.115
aF0.11
aF0.105
aF0.1
aF0.095
aF0.09
aF0.085
aF0.08
aF0.075
aF0.07
aF0.065
aF0.06
aF0.055
aF0.05
aF0.045
aF0.04
aF0.035
aF0.03
aF0.025
aF0.02
aF0.015
aF0.01
aF0.005
aF0.0
aI0
aI0
aI0
aI0
aI0
aI0
aI0
aI0
aI0
aI0
aI0
aI0
aI0
aI0
aI0
aI0
aI0
aI0
aI0
aI0
aI0
aI0
aI0
aI0
aI0
aI0
aI0
aI0
aI0
aI0
aI0
aI0
aI0
aI0
aI0
aI0
aI0
aI0
aI0
aI0
aI0
aI0
aI0
aI0
aI0
aI0
aI0
aI0
aI0
aI0
aI0
aI0
aI0
aI0
aI0
aI0
aI0
aI0
aI0
asI12
(lp15
F0.018
aF0.0389
aF0.017
aF0.0399
aF0.0505
aF0.0607
aF0.0706
aF0.0838
aF0.08
aF0.0713
aF0.0775
aF0.0775
aF0.089
aF0.0871
aF0.1169
aF0.0843
aF0.0853
aF0.115
aF0.0921
aF0.134
aF0.1102
aF0.1493
aF0.1363
aF0.1318
aF0.1306
aF0.1277
aF0.1666
aF0.153
aF0.1883
aF0.1842
aF0.1993
aF0.1707
aF0.193
aF0.1814
aF0.2163
aF0.2103
aF0.2293
aF0.2113
aF0.2138
aF0.2317
aF0.2474
aF0.2456
aF0.2539
aF0.2555
aF0.2257
aF0.2509
aF0.2488
aF0.2783
aF0.2436
aF0.2469
aF0.2895
aF0.279
aF0.2684
aF0.3094
aF0.309
aF0.317
aF0.3241
aF0.2986
aF0.3023
aF0.3189
aF0.3168
aF0.3436
aF0.3353
aF0.3412
aF0.3354
aF0.3102
aF0.3409
aF0.324
aF0.3206
aF0.3147
aF0.3261
aF0.3263
aF0.303
aF0.3362
aF0.3349
aF0.3254
aF0.302
aF0.3396
aF0.3248
aF0.3226
aF0.3279
aF0.3337
aF0.3149
aF0.303
aF0.3054
aF0.3037
aF0.3192
aF0.3123
aF0.3141
aF0.3095
aF0.3008
aF0.3146
aF0.3233
aF0.3127
aF0.3467
aF0.3345
aF0.3428
aF0.3311
aF0.3459
aF0.3032
aF0.3376
aF0.3292
aF0.3393
aF0.3307
aF0.3243
aF0.3117
aF0.3415
aF0.3204
aF0.322
aF0.304
aF0.3068
aF0.3248
aF0.3203
aF0.3035
aF0.3203
aF0.3359
aF0.345
aF0.3394
aF0.3373
aF0.3193
aF0.3415
aF0.3217
aF0.3287
aF0.3404
aF0.3391
aF0.3396
aF0.3031
aF0.3212
aF0.321
aF0.3257
aF0.3309
aF0.301
aF0.3325
aF0.324
aF0.3366
aF0.3456
aF0.312
aF0.3021
aF0.323
aF0.3316
aF0.3371
aF0.3366
aF0.3031
aF0.3062
aF0.322
aF0.3319
aF0.3308
aF0.3192
aF0.3461
aF0.3179
aF0.3086
aF0.3207
aF0.3311
aF0.3347
aF0.3168
aF0.3252
aF0.3428
aF0.3442
aF0.3329
aF0.3307
aF0.345
aF0.3072
aF0.3292
aF0.347
aF0.3155
aF0.3324
aF0.3465
aF0.339
aF0.3135
aF0.3328
aF0.3095
aF0.3124
aF0.3278
aF0.3324
aF0.306
aF0.3007
aF0.336
aF0.3383
aF0.3092
aF0.3282
aF0.3277
aF0.295
aF0.29
aF0.285
aF0.28
aF0.275
aF0.27
aF0.265
aF0.26
aF0.255
aF0.25
aF0.245
aF0.24
aF0.235
aF0.23
aF0.225
aF0.22
aF0.215
aF0.21
aF0.205
aF0.2
aF0.195
aF0.19
aF0.185
aF0.18
aF0.175
aF0.17
aF0.165
aF0.16
aF0.155
aF0.15
aF0.145
aF0.14
aF0.135
aF0.13
aF0.125
aF0.12
aF0.115
aF0.11
aF0.105
aF0.1
aF0.095
aF0.09
aF0.085
aF0.08
aF0.075
aF0.07
aF0.065
aF0.06
aF0.055
aF0.05
aF0.045
aF0.04
aF0.035
aF0.03
aF0.025
aF0.02
aF0.015
aF0.01
aF0.005
aF0.0
aI0
aI0
aI0
aI0
aI0
aI0
aI0
aI0
aI0
aI0
aI0
aI0
aI0
aI0
aI0
aI0
aI0
aI0
aI0
aI0
aI0
aI0
aI0
aI0
aI0
aI0
aI0
aI0
aI0
aI0
aI0
aI0
aI0
aI0
aI0
aI0
aI0
aI0
aI0
aI0
aI0
aI0
aI0
aI0
aI0
aI0
aI0
aI0
aI0
aI0
aI0
aI0
aI0
aI0
aI0
aI0
aI0
aI0
aI0
asI21
(lp16
F0.0013
aF0.0075
aF0.0128
aF0.0139
aF0.0117
aF0.017
aF0.0205
aF0.0282
aF0.0227
aF0.0323
aF0.0343
aF0.0344
aF0.0388
aF0.0466
aF0.0397
aF0.0436
aF0.051
aF0.055
aF0.0604
aF0.0573
aF0.0639
aF0.0683
aF0.0693
aF0.0713
aF0.0691
aF0.0738
aF0.0806
aF0.0826
aF0.0814
aF0.0824
aF0.0882
aF0.096
aF0.0976
aF0.1017
aF0.1037
aF0.1075
aF0.1081
aF0.106
aF0.1171
aF0.1107
aF0.1137
aF0.1228
aF0.1243
aF0.1272
aF0.1315
aF0.1335
aF0.1342
aF0.1366
aF0.1434
aF0.1448
aF0.1464
aF0.1523
aF0.1555
aF0.1537
aF0.1598
aF0.1634
aF0.1618
aF0.1662
aF0.1644
aF0.1728
aF0.1795
aF0.1716
aF0.2174
aF0.2016
aF0.2182
aF0.2135
aF0.1953
aF0.2006
aF0.2194
aF0.1967
aF0.2131
aF0.1958
aF0.1839
aF0.1815
aF0.1857
aF0.176
aF0.1787
aF0.1879
aF0.1977
aF0.1871
aF0.1902
aF0.1993
aF0.1997
aF0.2055
aF0.2199
aF0.2028
aF0.1911
aF0.2161
aF0.1838
aF0.2167
aF0.2154
aF0.1992
aF0.1701
aF0.2153
aF0.2061
aF0.1982
aF0.1905
aF0.2092
aF0.2169
aF0.2098
aF0.209
aF0.184
aF0.1929
aF0.1808
aF0.2112
aF0.1704
aF0.1771
aF0.1814
aF0.2153
aF0.1947
aF0.1994
aF0.1822
aF0.1866
aF0.1706
aF0.2045
aF0.2043
aF0.171
aF0.1701
aF0.2018
aF0.2153
aF0.2173
aF0.2084
aF0.2193
aF0.2192
aF0.2169
aF0.2132
aF0.18
aF0.2156
aF0.1727
aF0.2034
aF0.1993
aF0.1747
aF0.2041
aF0.1966
aF0.1804
aF0.1747
aF0.1885
aF0.2104
aF0.1926
aF0.1792
aF0.2114
aF0.205
aF0.1912
aF0.204
aF0.1706
aF0.2059
aF0.1895
aF0.1843
aF0.1865
aF0.2026
aF0.1848
aF0.1727
aF0.2188
aF0.1814
aF0.2109
aF0.1711
aF0.1834
aF0.1703
aF0.2068
aF0.2055
aF0.1855
aF0.1802
aF0.1945
aF0.2031
aF0.1969
aF0.1801
aF0.198
aF0.1994
aF0.1925
aF0.2161
aF0.17
aF0.17
aF0.1992
aF0.1864
aF0.2088
aF0.2044
aF0.2066
aF0.2022
aF0.1952
aF0.1991
aF0.2047
aF0.1672
aF0.1643
aF0.1615
aF0.1587
aF0.1558
aF0.153
aF0.1502
aF0.1473
aF0.1445
aF0.1417
aF0.1388
aF0.136
aF0.1332
aF0.1303
aF0.1275
aF0.1247
aF0.1218
aF0.119
aF0.1162
aF0.1133
aF0.1105
aF0.1077
aF0.1048
aF0.102
aF0.0992
aF0.0963
aF0.0935
aF0.0907
aF0.0878
aF0.085
aF0.0822
aF0.0793
aF0.0765
aF0.0737
aF0.0708
aF0.068
aF0.0652
aF0.0623
aF0.0595
aF0.0567
aF0.0538
aF0.051
aF0.0482
aF0.0453
aF0.0425
aF0.0397
aF0.0368
aF0.034
aF0.0312
aF0.0283
aF0.0255
aF0.0227
aF0.0198
aF0.017
aF0.0142
aF0.0113
aF0.0085
aF0.0057
aF0.0028
aF0.0
aI0
aI0
aI0
aI0
aI0
aI0
aI0
aI0
aI0
aI0
aI0
aI0
aI0
aI0
aI0
aI0
aI0
aI0
aI0
aI0
aI0
aI0
aI0
aI0
aI0
aI0
aI0
aI0
aI0
aI0
aI0
aI0
aI0
aI0
aI0
aI0
aI0
aI0
aI0
aI0
aI0
aI0
aI0
aI0
aI0
aI0
aI0
aI0
aI0
aI0
aI0
aI0
aI0
aI0
aI0
aI0
aI0
aI0
aI0
asI22
(lp17
F0.0011
aF0.0059
aF0.01
aF0.0178
aF0.0186
aF0.0157
aF0.0258
aF0.0257
aF0.0258
aF0.0331
aF0.0305
aF0.0327
aF0.0366
aF0.0412
aF0.0493
aF0.0496
aF0.0458
aF0.0556
aF0.058
aF0.0606
aF0.0595
aF0.0635
aF0.0723
aF0.0725
aF0.0681
aF0.0733
aF0.0757
aF0.0828
aF0.0857
aF0.0898
aF0.0948
aF0.0947
aF0.0957
aF0.1001
aF0.1
aF0.1081
aF0.1102
aF0.1113
aF0.1164
aF0.1125
aF0.1137
aF0.1169
aF0.1234
aF0.1232
aF0.1307
aF0.1349
aF0.1391
aF0.1334
aF0.1433
aF0.1435
aF0.1514
aF0.1521
aF0.1517
aF0.1575
aF0.1568
aF0.1575
aF0.1655
aF0.167
aF0.1695
aF0.1686
aF0.1733
aF0.1908
aF0.1709
aF0.1956
aF0.2129
aF0.2009
aF0.1713
aF0.2126
aF0.2143
aF0.2151
aF0.1903
aF0.1868
aF0.1855
aF0.212
aF0.1921
aF0.1934
aF0.2038
aF0.1993
aF0.1978
aF0.1823
aF0.1718
aF0.1814
aF0.1759
aF0.203
aF0.1725
aF0.1958
aF0.1836
aF0.2014
aF0.2043
aF0.1916
aF0.2048
aF0.1974
aF0.1917
aF0.1751
aF0.1931
aF0.1965
aF0.2119
aF0.2045
aF0.1853
aF0.2031
aF0.1934
aF0.1957
aF0.2114
aF0.189
aF0.1719
aF0.1865
aF0.178
aF0.1934
aF0.1826
aF0.2094
aF0.1761
aF0.2126
aF0.1848
aF0.2067
aF0.2048
aF0.1752
aF0.1856
aF0.2012
aF0.2114
aF0.1869
aF0.1973
aF0.218
aF0.1875
aF0.1799
aF0.211
aF0.2071
aF0.2119
aF0.1986
aF0.1911
aF0.2162
aF0.1982
aF0.2176
aF0.2139
aF0.2046
aF0.1778
aF0.1808
aF0.2094
aF0.1932
aF0.1704
aF0.1822
aF0.2021
aF0.1728
aF0.2179
aF0.1995
aF0.1734
aF0.1772
aF0.2105
aF0.1796
aF0.1709
aF0.1842
aF0.187
aF0.1878
aF0.2025
aF0.1844
aF0.2162
aF0.2182
aF0.2149
aF0.2128
aF0.2194
aF0.1998
aF0.1834
aF0.2027
aF0.1893
aF0.2125
aF0.1816
aF0.2054
aF0.1951
aF0.1953
aF0.1915
aF0.2127
aF0.177
aF0.2083
aF0.1995
aF0.1792
aF0.2132
aF0.2013
aF0.1829
aF0.2089
aF0.1994
aF0.1809
aF0.2152
aF0.1672
aF0.1643
aF0.1615
aF0.1587
aF0.1558
aF0.153
aF0.1502
aF0.1473
aF0.1445
aF0.1417
aF0.1388
aF0.136
aF0.1332
aF0.1303
aF0.1275
aF0.1247
aF0.1218
aF0.119
aF0.1162
aF0.1133
aF0.1105
aF0.1077
aF0.1048
aF0.102
aF0.0992
aF0.0963
aF0.0935
aF0.0907
aF0.0878
aF0.085
aF0.0822
aF0.0793
aF0.0765
aF0.0737
aF0.0708
aF0.068
aF0.0652
aF0.0623
aF0.0595
aF0.0567
aF0.0538
aF0.051
aF0.0482
aF0.0453
aF0.0425
aF0.0397
aF0.0368
aF0.034
aF0.0312
aF0.0283
aF0.0255
aF0.0227
aF0.0198
aF0.017
aF0.0142
aF0.0113
aF0.0085
aF0.0057
aF0.0028
aF0.0
aI0
aI0
aI0
aI0
aI0
aI0
aI0
aI0
aI0
aI0
aI0
aI0
aI0
aI0
aI0
aI0
aI0
aI0
aI0
aI0
aI0
aI0
aI0
aI0
aI0
aI0
aI0
aI0
aI0
aI0
aI0
aI0
aI0
aI0
aI0
aI0
aI0
aI0
aI0
aI0
aI0
aI0
aI0
aI0
aI0
aI0
aI0
aI0
aI0
aI0
aI0
aI0
aI0
aI0
aI0
aI0
aI0
aI0
aI0
assVx
p18
(lp19
I0
aI1
aI2
aI3
aI4
aI5
aI6
aI7
aI8
aI9
aI10
aI11
aI12
aI13
aI14
aI15
aI16
aI17
aI18
aI19
aI20
aI21
aI22
aI23
aI24
aI25
aI26
aI27
aI28
aI29
aI30
aI31
aI32
aI33
aI34
aI35
aI36
aI37
aI38
aI39
aI40
aI41
aI42
aI43
aI44
aI45
aI46
aI47
aI48
aI49
aI50
aI51
aI52
aI53
aI54
aI55
aI56
aI57
aI58
aI59
aI60
aI61
aI62
aI63
aI64
aI65
aI66
aI67
aI68
aI69
aI70
aI71
aI72
aI73
aI74
aI75
aI76
aI77
aI78
aI79
aI80
aI81
aI82
aI83
aI84
aI85
aI86
aI87
aI88
aI89
aI90
aI91
aI92
aI93
aI94
aI95
aI96
aI97
aI98
aI99
aI100
aI101
aI102
aI103
aI104
aI105
aI106
aI107
aI108
aI109
aI110
aI111
aI112
aI113
aI114
aI115
aI116
aI117
aI118
aI119
aI120
aI121
aI122
aI123
aI124
aI125
aI126
aI127
aI128
aI129
aI130
aI131
aI132
aI133
aI134
aI135
aI136
aI137
aI138
aI139
aI140
aI141
aI142
aI143
aI144
aI145
aI146
aI147
aI148
aI149
aI150
aI151
aI152
aI153
aI154
aI155
aI156
aI157
aI158
aI159
aI160
aI161
aI162
aI163
aI164
aI165
aI166
aI167
aI168
aI169
aI170
aI171
aI172
aI173
aI174
aI175
aI176
aI177
aI178
aI179
aI180
aI181
aI182
aI183
aI184
aI185
aI186
aI187
aI188
aI189
aI190
aI191
aI192
aI193
aI194
aI195
aI196
aI197
aI198
aI199
aI200
aI201
aI202
aI203
aI204
aI205
aI206
aI207
aI208
aI209
aI210
aI211
aI212
aI213
aI214
aI215
aI216
aI217
aI218
aI219
aI220
aI221
aI222
aI223
aI224
aI225
aI226
aI227
aI228
aI229
aI230
aI231
aI232
aI233
aI234
aI235
aI236
aI237
aI238
aI239
aI240
aI241
aI242
aI243
aI244
aI245
aI246
aI247
aI248
aI249
aI250
aI251
aI252
aI253
aI254
aI255
aI256
aI257
aI258
aI259
aI260
aI261
aI262
aI263
aI264
aI265
aI266
aI267
aI268
aI269
aI270
aI271
aI272
aI273
aI274
aI275
aI276
aI277
aI278
aI279
aI280
aI281
aI282
aI283
aI284
aI285
aI286
aI287
aI288
aI289
aI290
aI291
aI292
aI293
aI294
aI295
aI296
aI297
aI298
aI299
asVy
p20
(lp21
I0
aI1
aI2
aI3
aI4
aI5
aI6
aI7
aI8
aI9
aI10
aI11
aI12
aI13
aI14
aI15
aI16
aI17
aI18
aI19
aI20
aI21
aI22
aI23
aI24
aI25
aI26
aI27
aI28
aI29
aI30
aI31
aI32
aI33
aI34
aI35
aI36
aI37
aI38
aI39
aI40
aI41
aI42
aI43
aI44
aI45
aI46
aI47
aI48
aI49
aI50
aI51
aI52
aI53
aI54
aI55
aI56
aI57
aI58
aI59
aI60
aI61
aI62
aI63
aI64
aI65
aI66
aI67
aI68
aI69
aI70
aI71
aI72
aI73
aI74
aI75
aI76
aI77
aI78
aI79
aI80
aI81
aI82
aI83
aI84
aI85
aI86
aI87
aI88
aI89
aI90
aI91
aI92
aI93
aI94
aI95
aI96
aI97
aI98
aI99
aI100
aI101
aI102
aI103
aI104
aI105
aI106
aI107
aI108
aI109
aI110
aI111
aI112
aI113
aI114
aI115
aI116
aI117
aI118
aI119
aI120
aI121
aI122
aI123
aI124
aI125
aI126
aI127
aI128
aI129
aI130
aI131
aI132
aI133
aI134
aI135
aI136
aI137
aI138
aI139
aI140
aI141
aI142
aI143
aI144
aI145
aI146
aI147
aI148
aI149
aI150
aI151
aI152
aI153
aI154
aI155
aI156
aI157
aI158
aI159
aI160
aI161
aI162
aI163
aI164
aI165
aI166
aI167
aI168
aI169
aI170
aI171
aI172
aI173
aI174
aI175
aI176
aI177
aI178
aI179
aI180
aI181
aI182
aI183
aI184
aI185
aI186
aI187
aI188
aI189
aI190
aI191
aI192
aI193
aI194
aI195
aI196
aI197
aI198
aI199
aI200
aI201
aI202
aI203
aI204
aI205
aI206
aI207
aI208
aI209
aI210
aI211
aI212
aI213
aI214
aI215
aI216
aI217
aI218
aI219
aI220
aI221
aI222
aI223
aI224
aI225
aI226
aI227
aI228
aI229
aI230
aI231
aI232
aI233
aI234
aI235
aI236
aI237
aI238
aI239
aI240
aI241
aI242
aI243
aI244
aI245
aI246
aI247
aI248
aI249
aI250
aI251
aI252
aI253
aI254
aI255
aI256
aI257
aI258
aI259
aI260
aI261
aI262
aI263
aI264
aI265
aI266
aI267
aI268
aI269
aI270
aI271
aI272
aI273
aI274
aI275
aI276
aI277
aI278
aI279
aI280
aI281
aI282
aI283
aI284
aI285
aI286
aI287
aI288
aI289
aI290
aI291
aI292
aI293
aI294
aI295
aI296
aI297
aI298
aI299
asVd_2
p22
g7
sVd_low_2
p23
g13
sb.