ccopy_reg
_reconstructor
p0
(cPycharmProjects.MPC.est_de
TrafficDemand
p1
c__builtin__
object
p2
Ntp3
Rp4
(dp5
Vd
p6
(dp7
I11
(lp8
F0.0204
aF0.015
aF0.0559
aF0.0444
aF0.0483
aF0.0596
aF0.0938
aF0.0956
aF0.0998
aF0.1155
aF0.1266
aF0.1355
aF0.1414
aF0.1385
aF0.1559
aF0.1347
aF0.1431
aF0.1617
aF0.1577
aF0.1885
aF0.2125
aF0.2183
aF0.1951
aF0.2153
aF0.2333
aF0.2576
aF0.2548
aF0.2331
aF0.2672
aF0.2536
aF0.2866
aF0.2718
aF0.2673
aF0.2857
aF0.2864
aF0.2928
aF0.3091
aF0.3224
aF0.3488
aF0.3583
aF0.3756
aF0.3575
aF0.3776
aF0.3695
aF0.4006
aF0.4059
aF0.4136
aF0.4262
aF0.4198
aF0.4124
aF0.462
aF0.4536
aF0.4742
aF0.4557
aF0.4899
aF0.4695
aF0.4761
aF0.5046
aF0.5205
aF0.527
aF0.5182
aF0.5393
aF0.5241
aF0.5079
aF0.5218
aF0.501
aF0.5329
aF0.5217
aF0.5101
aF0.511
aF0.5317
aF0.5244
aF0.5007
aF0.5298
aF0.5056
aF0.5425
aF0.5486
aF0.5346
aF0.5305
aF0.5168
aF0.5158
aF0.5024
aF0.5305
aF0.5214
aF0.5345
aF0.507
aF0.5492
aF0.5219
aF0.5106
aF0.5107
aF0.5052
aF0.5273
aF0.528
aF0.5494
aF0.508
aF0.5437
aF0.5296
aF0.5203
aF0.5168
aF0.5039
aF0.5434
aF0.5288
aF0.5488
aF0.5367
aF0.5303
aF0.5351
aF0.5012
aF0.5162
aF0.5456
aF0.5461
aF0.5422
aF0.5246
aF0.5129
aF0.526
aF0.5022
aF0.5433
aF0.5365
aF0.5141
aF0.5207
aF0.5465
aF0.5467
aF0.5324
aF0.5282
aF0.5349
aF0.5048
aF0.5295
aF0.5178
aF0.5457
aF0.502
aF0.528
aF0.5058
aF0.5408
aF0.506
aF0.5353
aF0.5435
aF0.5131
aF0.5076
aF0.5451
aF0.5316
aF0.5401
aF0.5265
aF0.5158
aF0.5203
aF0.5176
aF0.5334
aF0.5129
aF0.5016
aF0.5237
aF0.5075
aF0.5114
aF0.5316
aF0.5147
aF0.5359
aF0.5135
aF0.5072
aF0.5155
aF0.5006
aF0.5485
aF0.5256
aF0.5332
aF0.5111
aF0.5098
aF0.5283
aF0.5288
aF0.5298
aF0.5228
aF0.525
aF0.5341
aF0.55
aF0.5394
aF0.5274
aF0.5447
aF0.5423
aF0.5102
aF0.5392
aF0.5153
aF0.5388
aF0.5428
aF0.5284
aF0.5343
aF0.5251
aF0.4917
aF0.4833
aF0.475
aF0.4667
aF0.4583
aF0.45
aF0.4417
aF0.4333
aF0.425
aF0.4167
aF0.4083
aF0.4
aF0.3917
aF0.3833
aF0.375
aF0.3667
aF0.3583
aF0.35
aF0.3417
aF0.3333
aF0.325
aF0.3167
aF0.3083
aF0.3
aF0.2917
aF0.2833
aF0.275
aF0.2667
aF0.2583
aF0.25
aF0.2417
aF0.2333
aF0.225
aF0.2167
aF0.2083
aF0.2
aF0.1917
aF0.1833
aF0.175
aF0.1667
aF0.1583
aF0.15
aF0.1417
aF0.1333
aF0.125
aF0.1167
aF0.1083
aF0.1
aF0.0917
aF0.0833
aF0.075
aF0.0667
aF0.0583
aF0.05
aF0.0417
aF0.0333
aF0.025
aF0.0167
aF0.0083
aF0.0
aI0
aI0
aI0
aI0
aI0
aI0
aI0
aI0
aI0
aI0
aI0
aI0
aI0
aI0
aI0
aI0
aI0
aI0
aI0
aI0
aI0
aI0
aI0
aI0
aI0
aI0
aI0
aI0
aI0
aI0
aI0
aI0
aI0
aI0
aI0
aI0
aI0
aI0
aI0
aI0
aI0
aI0
aI0
aI0
aI0
aI0
aI0
aI0
aI0
aI0
aI0
aI0
aI0
aI0
aI0
aI0
aI0
aI0
aI0
asI12
(lp9
F0.0277
aF0.0234
aF0.0528
aF0.0681
aF0.0825
aF0.0528
aF0.0744
aF0.0942
aF0.0822
aF0.0954
aF0.1122
aF0.1036
aF0.1291
aF0.1547
aF0.1662
aF0.1347
aF0.1375
aF0.1619
aF0.152
aF0.199
aF0.1928
aF0.1866
aF0.2126
aF0.2118
aF0.213
aF0.224
aF0.2622
aF0.2685
aF0.2795
aF0.2514
aF0.2698
aF0.2941
aF0.2736
aF0.2909
aF0.322
aF0.3243
aF0.3179
aF0.3443
aF0.3388
aF0.3363
aF0.3765
aF0.3701
aF0.3796
aF0.3612
aF0.3892
aF0.4155
aF0.3897
aF0.4006
aF0.4117
aF0.4388
aF0.4214
aF0.4294
aF0.4594
aF0.4482
aF0.4884
aF0.4735
aF0.5141
aF0.507
aF0.4881
aF0.5393
aF0.5477
aF0.5317
aF0.5061
aF0.5105
aF0.5168
aF0.5172
aF0.5416
aF0.5211
aF0.5448
aF0.5248
aF0.5321
aF0.5449
aF0.5075
aF0.535
aF0.5213
aF0.5214
aF0.5197
aF0.5232
aF0.5013
aF0.5193
aF0.5345
aF0.536
aF0.5324
aF0.5428
aF0.5095
aF0.5061
aF0.5203
aF0.5377
aF0.5396
aF0.5361
aF0.5447
aF0.5359
aF0.5042
aF0.5087
aF0.5446
aF0.5472
aF0.5246
aF0.5373
aF0.5454
aF0.505
aF0.5372
aF0.5118
aF0.5034
aF0.5474
aF0.537
aF0.5254
aF0.5216
aF0.521
aF0.5302
aF0.5235
aF0.5333
aF0.5292
aF0.5194
aF0.5495
aF0.5383
aF0.5009
aF0.515
aF0.5064
aF0.5442
aF0.5462
aF0.5233
aF0.5205
aF0.5331
aF0.5316
aF0.5356
aF0.5424
aF0.5172
aF0.5469
aF0.5352
aF0.5093
aF0.5023
aF0.5258
aF0.5494
aF0.5193
aF0.5066
aF0.5032
aF0.5289
aF0.522
aF0.522
aF0.5237
aF0.547
aF0.5204
aF0.5277
aF0.5285
aF0.5216
aF0.5236
aF0.5041
aF0.5018
aF0.5486
aF0.5265
aF0.5189
aF0.5389
aF0.5419
aF0.5167
aF0.5438
aF0.5219
aF0.5097
aF0.5353
aF0.5305
aF0.5357
aF0.5369
aF0.5307
aF0.5478
aF0.5314
aF0.548
aF0.5015
aF0.5456
aF0.5109
aF0.5486
aF0.5283
aF0.5401
aF0.5244
aF0.5036
aF0.5321
aF0.5241
aF0.5149
aF0.5252
aF0.5292
aF0.514
aF0.5018
aF0.5404
aF0.4917
aF0.4833
aF0.475
aF0.4667
aF0.4583
aF0.45
aF0.4417
aF0.4333
aF0.425
aF0.4167
aF0.4083
aF0.4
aF0.3917
aF0.3833
aF0.375
aF0.3667
aF0.3583
aF0.35
aF0.3417
aF0.3333
aF0.325
aF0.3167
aF0.3083
aF0.3
aF0.2917
aF0.2833
aF0.275
aF0.2667
aF0.2583
aF0.25
aF0.2417
aF0.2333
aF0.225
aF0.2167
aF0.2083
aF0.2
aF0.1917
aF0.1833
aF0.175
aF0.1667
aF0.1583
aF0.15
aF0.1417
aF0.1333
aF0.125
aF0.1167
aF0.1083
aF0.1
aF0.0917
aF0.0833
aF0.075
aF0.0667
aF0.0583
aF0.05
aF0.0417
aF0.0333
aF0.025
aF0.0167
aF0.0083
aF0.0
aI0
aI0
aI0
aI0
aI0
aI0
aI0
aI0
aI0
aI0
aI0
aI0
aI0
aI0
aI0
aI0
aI0
aI0
aI0
aI0
aI0
aI0
aI0
aI0
aI0
aI0
aI0
aI0
aI0
aI0
aI0
aI0
aI0
aI0
aI0
aI0
aI0
aI0
aI0
aI0
aI0
aI0
aI0
aI0
aI0
aI0
aI0
aI0
aI0
aI0
aI0
aI0
aI0
aI0
aI0
aI0
aI0
aI0
aI0
asI21
(lp10
F0.007
aF0.0131
aF0.0135
aF0.0193
aF0.0288
aF0.0256
aF0.033
aF0.038
aF0.05
aF0.0495
aF0.0588
aF0.0635
aF0.0643
aF0.0723
aF0.0768
aF0.0773
aF0.0857
aF0.0948
aF0.0931
aF0.0963
aF0.1055
aF0.1147
aF0.1167
aF0.1243
aF0.1257
aF0.1324
aF0.1395
aF0.1422
aF0.1448
aF0.1504
aF0.1525
aF0.1608
aF0.1657
aF0.1741
aF0.1706
aF0.1839
aF0.1897
aF0.1902
aF0.1927
aF0.1988
aF0.2052
aF0.2118
aF0.2136
aF0.2156
aF0.2241
aF0.2265
aF0.231
aF0.2365
aF0.244
aF0.2454
aF0.2537
aF0.2592
aF0.2671
aF0.2696
aF0.2761
aF0.2754
aF0.287
aF0.287
aF0.2931
aF0.304
aF0.3035
aF0.3416
aF0.3347
aF0.3238
aF0.3042
aF0.3129
aF0.3398
aF0.3395
aF0.3036
aF0.347
aF0.3153
aF0.3208
aF0.3275
aF0.3165
aF0.3475
aF0.3465
aF0.3308
aF0.3383
aF0.3223
aF0.3063
aF0.336
aF0.3138
aF0.3281
aF0.3176
aF0.3083
aF0.3351
aF0.3459
aF0.3243
aF0.3434
aF0.3454
aF0.3104
aF0.3259
aF0.3218
aF0.301
aF0.3018
aF0.3201
aF0.3303
aF0.3126
aF0.3454
aF0.3029
aF0.3142
aF0.3472
aF0.3039
aF0.3427
aF0.33
aF0.3162
aF0.3312
aF0.3012
aF0.3472
aF0.3293
aF0.3076
aF0.3129
aF0.3286
aF0.3323
aF0.3229
aF0.3043
aF0.3045
aF0.3216
aF0.326
aF0.3422
aF0.3014
aF0.3152
aF0.3456
aF0.3408
aF0.3494
aF0.3153
aF0.3293
aF0.3071
aF0.3454
aF0.3487
aF0.3488
aF0.312
aF0.3369
aF0.3241
aF0.33
aF0.3378
aF0.3233
aF0.3189
aF0.338
aF0.3072
aF0.31
aF0.3193
aF0.3195
aF0.3173
aF0.3281
aF0.3166
aF0.3148
aF0.3412
aF0.3395
aF0.3185
aF0.3128
aF0.3166
aF0.3266
aF0.3378
aF0.3388
aF0.3446
aF0.3049
aF0.3016
aF0.3092
aF0.3254
aF0.3327
aF0.3283
aF0.3257
aF0.3318
aF0.3088
aF0.3201
aF0.3294
aF0.3013
aF0.3423
aF0.3204
aF0.3096
aF0.3218
aF0.308
aF0.3309
aF0.3242
aF0.3409
aF0.3007
aF0.3499
aF0.3455
aF0.3029
aF0.3148
aF0.295
aF0.29
aF0.285
aF0.28
aF0.275
aF0.27
aF0.265
aF0.26
aF0.255
aF0.25
aF0.245
aF0.24
aF0.235
aF0.23
aF0.225
aF0.22
aF0.215
aF0.21
aF0.205
aF0.2
aF0.195
aF0.19
aF0.185
aF0.18
aF0.175
aF0.17
aF0.165
aF0.16
aF0.155
aF0.15
aF0.145
aF0.14
aF0.135
aF0.13
aF0.125
aF0.12
aF0.115
aF0.11
aF0.105
aF0.1
aF0.095
aF0.09
aF0.085
aF0.08
aF0.075
aF0.07
aF0.065
aF0.06
aF0.055
aF0.05
aF0.045
aF0.04
aF0.035
aF0.03
aF0.025
aF0.02
aF0.015
aF0.01
aF0.005
aF0.0
aI0
aI0
aI0
aI0
aI0
aI0
aI0
aI0
aI0
aI0
aI0
aI0
aI0
aI0
aI0
aI0
aI0
aI0
aI0
aI0
aI0
aI0
aI0
aI0
aI0
aI0
aI0
aI0
aI0
aI0
aI0
aI0
aI0
aI0
aI0
aI0
aI0
aI0
aI0
aI0
aI0
aI0
aI0
aI0
aI0
aI0
aI0
aI0
aI0
aI0
aI0
aI0
aI0
aI0
aI0
aI0
aI0
aI0
aI0
asI22
(lp11
F0.0038
aF0.0084
aF0.0125
aF0.0169
aF0.0212
aF0.0315
aF0.0354
aF0.0437
aF0.0414
aF0.0511
aF0.0564
aF0.0634
aF0.0692
aF0.07
aF0.0743
aF0.0827
aF0.082
aF0.0894
aF0.0964
aF0.0961
aF0.1069
aF0.1149
aF0.1142
aF0.1173
aF0.1204
aF0.1321
aF0.1306
aF0.1356
aF0.1422
aF0.1477
aF0.1515
aF0.1618
aF0.1656
aF0.1706
aF0.1716
aF0.1814
aF0.1852
aF0.1869
aF0.1992
aF0.1987
aF0.2001
aF0.2114
aF0.2118
aF0.2206
aF0.2237
aF0.2294
aF0.232
aF0.2393
aF0.2463
aF0.2482
aF0.2552
aF0.2587
aF0.2658
aF0.2659
aF0.2799
aF0.2794
aF0.2876
aF0.291
aF0.2942
aF0.304
aF0.3015
aF0.3016
aF0.3188
aF0.3399
aF0.319
aF0.3368
aF0.3266
aF0.3249
aF0.3339
aF0.3338
aF0.3277
aF0.3169
aF0.3351
aF0.302
aF0.3498
aF0.3404
aF0.3466
aF0.3074
aF0.3484
aF0.3035
aF0.3121
aF0.3121
aF0.3484
aF0.3326
aF0.3438
aF0.3395
aF0.3342
aF0.3034
aF0.3121
aF0.3157
aF0.339
aF0.3474
aF0.3221
aF0.3361
aF0.3301
aF0.3011
aF0.3453
aF0.3411
aF0.3024
aF0.3175
aF0.3461
aF0.3432
aF0.3447
aF0.3185
aF0.3374
aF0.3161
aF0.3213
aF0.3268
aF0.3178
aF0.3437
aF0.3456
aF0.303
aF0.3082
aF0.31
aF0.3289
aF0.3093
aF0.3497
aF0.3154
aF0.3134
aF0.3247
aF0.3129
aF0.3095
aF0.3004
aF0.317
aF0.3397
aF0.3489
aF0.3044
aF0.3437
aF0.3022
aF0.3145
aF0.3358
aF0.3176
aF0.3051
aF0.3284
aF0.3452
aF0.3169
aF0.3068
aF0.3163
aF0.3205
aF0.3361
aF0.3187
aF0.3231
aF0.3074
aF0.3293
aF0.3018
aF0.3068
aF0.3285
aF0.3346
aF0.3476
aF0.3414
aF0.3418
aF0.3443
aF0.3382
aF0.3311
aF0.3179
aF0.333
aF0.3273
aF0.3428
aF0.3358
aF0.3259
aF0.3459
aF0.3171
aF0.3245
aF0.3244
aF0.3023
aF0.3382
aF0.3319
aF0.3499
aF0.3252
aF0.3391
aF0.3335
aF0.3224
aF0.3484
aF0.3126
aF0.329
aF0.3141
aF0.3478
aF0.301
aF0.3188
aF0.3255
aF0.3481
aF0.295
aF0.29
aF0.285
aF0.28
aF0.275
aF0.27
aF0.265
aF0.26
aF0.255
aF0.25
aF0.245
aF0.24
aF0.235
aF0.23
aF0.225
aF0.22
aF0.215
aF0.21
aF0.205
aF0.2
aF0.195
aF0.19
aF0.185
aF0.18
aF0.175
aF0.17
aF0.165
aF0.16
aF0.155
aF0.15
aF0.145
aF0.14
aF0.135
aF0.13
aF0.125
aF0.12
aF0.115
aF0.11
aF0.105
aF0.1
aF0.095
aF0.09
aF0.085
aF0.08
aF0.075
aF0.07
aF0.065
aF0.06
aF0.055
aF0.05
aF0.045
aF0.04
aF0.035
aF0.03
aF0.025
aF0.02
aF0.015
aF0.01
aF0.005
aF0.0
aI0
aI0
aI0
aI0
aI0
aI0
aI0
aI0
aI0
aI0
aI0
aI0
aI0
aI0
aI0
aI0
aI0
aI0
aI0
aI0
aI0
aI0
aI0
aI0
aI0
aI0
aI0
aI0
aI0
aI0
aI0
aI0
aI0
aI0
aI0
aI0
aI0
aI0
aI0
aI0
aI0
aI0
aI0
aI0
aI0
aI0
aI0
aI0
aI0
aI0
aI0
aI0
aI0
aI0
aI0
aI0
aI0
aI0
aI0
assVd_low
p12
(dp13
I11
(lp14
F0.0209
aF0.0423
aF0.0253
aF0.0521
aF0.0229
aF0.035
aF0.0343
aF0.0713
aF0.0618
aF0.0919
aF0.0746
aF0.0779
aF0.0864
aF0.1018
aF0.1071
aF0.0869
aF0.1145
aF0.1329
aF0.0938
aF0.1332
aF0.1385
aF0.1063
aF0.1543
aF0.1171
aF0.162
aF0.1259
aF0.1786
aF0.1549
aF0.1469
aF0.1517
aF0.1881
aF0.1817
aF0.1731
aF0.2105
aF0.201
aF0.2211
aF0.2227
aF0.2237
aF0.1998
aF0.2059
aF0.244
aF0.2224
aF0.2425
aF0.2564
aF0.2281
aF0.2647
aF0.243
aF0.2779
aF0.2779
aF0.2883
aF0.2584
aF0.2589
aF0.2848
aF0.2978
aF0.2729
aF0.3006
aF0.3035
aF0.319
aF0.2931
aF0.3108
aF0.324
aF0.349
aF0.315
aF0.3226
aF0.3462
aF0.3435
aF0.3303
aF0.321
aF0.3195
aF0.3191
aF0.3365
aF0.3181
aF0.3355
aF0.3252
aF0.3352
aF0.3395
aF0.3179
aF0.312
aF0.3387
aF0.3155
aF0.3009
aF0.3299
aF0.3128
aF0.3067
aF0.3038
aF0.3359
aF0.3425
aF0.3114
aF0.3046
aF0.3346
aF0.3236
aF0.314
aF0.3374
aF0.3033
aF0.3087
aF0.3121
aF0.3244
aF0.3274
aF0.346
aF0.3186
aF0.3006
aF0.3139
aF0.3335
aF0.3356
aF0.3428
aF0.3179
aF0.3281
aF0.3028
aF0.3415
aF0.3016
aF0.3214
aF0.3361
aF0.3329
aF0.3026
aF0.3144
aF0.3294
aF0.3401
aF0.3466
aF0.3018
aF0.309
aF0.3298
aF0.3261
aF0.3388
aF0.3112
aF0.3088
aF0.3435
aF0.3234
aF0.3078
aF0.3457
aF0.3463
aF0.3372
aF0.3273
aF0.3245
aF0.3287
aF0.3174
aF0.3065
aF0.3351
aF0.321
aF0.3045
aF0.3343
aF0.3438
aF0.3135
aF0.3009
aF0.3447
aF0.3421
aF0.3026
aF0.3281
aF0.3013
aF0.3383
aF0.3173
aF0.3095
aF0.3375
aF0.3245
aF0.3446
aF0.3289
aF0.3425
aF0.3433
aF0.303
aF0.3261
aF0.3226
aF0.3491
aF0.349
aF0.3369
aF0.3038
aF0.308
aF0.3243
aF0.339
aF0.3076
aF0.3182
aF0.3021
aF0.3433
aF0.3446
aF0.3329
aF0.3251
aF0.3062
aF0.3359
aF0.3192
aF0.3339
aF0.3452
aF0.3136
aF0.345
aF0.295
aF0.29
aF0.285
aF0.28
aF0.275
aF0.27
aF0.265
aF0.26
aF0.255
aF0.25
aF0.245
aF0.24
aF0.235
aF0.23
aF0.225
aF0.22
aF0.215
aF0.21
aF0.205
aF0.2
aF0.195
aF0.19
aF0.185
aF0.18
aF0.175
aF0.17
aF0.165
aF0.16
aF0.155
aF0.15
aF0.145
aF0.14
aF0.135
aF0.13
aF0.125
aF0.12
aF0.115
aF0.11
aF0.105
aF0.1
aF0.095
aF0.09
aF0.085
aF0.08
aF0.075
aF0.07
aF0.065
aF0.06
aF0.055
aF0.05
aF0.045
aF0.04
aF0.035
aF0.03
aF0.025
aF0.02
aF0.015
aF0.01
aF0.005
aF0.0
aI0
aI0
aI0
aI0
aI0
aI0
aI0
aI0
aI0
aI0
aI0
aI0
aI0
aI0
aI0
aI0
aI0
aI0
aI0
aI0
aI0
aI0
aI0
aI0
aI0
aI0
aI0
aI0
aI0
aI0
aI0
aI0
aI0
aI0
aI0
aI0
aI0
aI0
aI0
aI0
aI0
aI0
aI0
aI0
aI0
aI0
aI0
aI0
aI0
aI0
aI0
aI0
aI0
aI0
aI0
aI0
aI0
aI0
aI0
asI12
(lp15
F0.0281
aF0.0072
aF0.035
aF0.0546
aF0.0649
aF0.0388
aF0.0507
aF0.0695
aF0.0463
aF0.0886
aF0.0951
aF0.104
aF0.0892
aF0.1031
aF0.0942
aF0.1004
aF0.1249
aF0.0889
aF0.1363
aF0.1207
aF0.1292
aF0.1381
aF0.122
aF0.1487
aF0.1306
aF0.1724
aF0.1442
aF0.1658
aF0.1445
aF0.1508
aF0.163
aF0.1612
aF0.1711
aF0.1668
aF0.2024
aF0.2002
aF0.181
aF0.2297
aF0.2201
aF0.2331
aF0.2101
aF0.235
aF0.2131
aF0.2183
aF0.2327
aF0.2484
aF0.2408
aF0.2403
aF0.2843
aF0.2619
aF0.2594
aF0.2729
aF0.3062
aF0.2733
aF0.2963
aF0.3
aF0.2999
aF0.2899
aF0.2919
aF0.3162
aF0.3021
aF0.3359
aF0.3094
aF0.3371
aF0.3478
aF0.3417
aF0.3151
aF0.314
aF0.334
aF0.3221
aF0.3166
aF0.3005
aF0.3468
aF0.3079
aF0.3346
aF0.3188
aF0.3337
aF0.3156
aF0.3148
aF0.3155
aF0.3265
aF0.3362
aF0.3156
aF0.3072
aF0.3133
aF0.3334
aF0.3449
aF0.3257
aF0.3364
aF0.3282
aF0.3011
aF0.3159
aF0.3386
aF0.3376
aF0.3468
aF0.3494
aF0.3205
aF0.3476
aF0.3136
aF0.3096
aF0.3166
aF0.3389
aF0.3489
aF0.3387
aF0.3194
aF0.3165
aF0.349
aF0.3291
aF0.3226
aF0.328
aF0.3141
aF0.3377
aF0.3212
aF0.3116
aF0.3016
aF0.3325
aF0.3388
aF0.3082
aF0.318
aF0.3282
aF0.3366
aF0.3048
aF0.3448
aF0.3159
aF0.3139
aF0.3493
aF0.3196
aF0.3254
aF0.3204
aF0.3269
aF0.3419
aF0.301
aF0.3117
aF0.3278
aF0.3266
aF0.313
aF0.349
aF0.3276
aF0.3308
aF0.3312
aF0.3213
aF0.3397
aF0.3228
aF0.3329
aF0.3264
aF0.3093
aF0.3175
aF0.3007
aF0.3294
aF0.3476
aF0.3094
aF0.3081
aF0.3182
aF0.3242
aF0.3355
aF0.3126
aF0.3257
aF0.3095
aF0.3004
aF0.3493
aF0.3461
aF0.3348
aF0.3396
aF0.3057
aF0.3037
aF0.3157
aF0.3334
aF0.3267
aF0.3317
aF0.3235
aF0.3389
aF0.3491
aF0.3341
aF0.3151
aF0.3132
aF0.3027
aF0.3199
aF0.3279
aF0.3463
aF0.3195
aF0.3489
aF0.295
aF0.29
aF0.285
aF0.28
aF0.275
aF0.27
aF0.265
aF0.26
aF0.255
aF0.25
aF0.245
aF0.24
aF0.235
aF0.23
aF0.225
aF0.22
aF0.215
aF0.21
aF0.205
aF0.2
aF0.195
aF0.19
aF0.185
aF0.18
aF0.175
aF0.17
aF0.165
aF0.16
aF0.155
aF0.15
aF0.145
aF0.14
aF0.135
aF0.13
aF0.125
aF0.12
aF0.115
aF0.11
aF0.105
aF0.1
aF0.095
aF0.09
aF0.085
aF0.08
aF0.075
aF0.07
aF0.065
aF0.06
aF0.055
aF0.05
aF0.045
aF0.04
aF0.035
aF0.03
aF0.025
aF0.02
aF0.015
aF0.01
aF0.005
aF0.0
aI0
aI0
aI0
aI0
aI0
aI0
aI0
aI0
aI0
aI0
aI0
aI0
aI0
aI0
aI0
aI0
aI0
aI0
aI0
aI0
aI0
aI0
aI0
aI0
aI0
aI0
aI0
aI0
aI0
aI0
aI0
aI0
aI0
aI0
aI0
aI0
aI0
aI0
aI0
aI0
aI0
aI0
aI0
aI0
aI0
aI0
aI0
aI0
aI0
aI0
aI0
aI0
aI0
aI0
aI0
aI0
aI0
aI0
aI0
asI21
(lp16
F0.001
aF0.0103
aF0.0087
aF0.0149
aF0.0188
aF0.0237
aF0.0243
aF0.0251
aF0.0291
aF0.0315
aF0.0361
aF0.0359
aF0.0355
aF0.0392
aF0.0453
aF0.052
aF0.0472
aF0.0557
aF0.0523
aF0.0615
aF0.0591
aF0.0641
aF0.0644
aF0.0666
aF0.0776
aF0.0755
aF0.0825
aF0.0808
aF0.0884
aF0.0884
aF0.0933
aF0.0893
aF0.1005
aF0.1003
aF0.1037
aF0.0998
aF0.1093
aF0.1098
aF0.1089
aF0.1159
aF0.1193
aF0.1238
aF0.1236
aF0.127
aF0.1264
aF0.1291
aF0.1371
aF0.1355
aF0.1432
aF0.1437
aF0.1417
aF0.1507
aF0.1503
aF0.1527
aF0.1558
aF0.1614
aF0.1668
aF0.1712
aF0.1688
aF0.1768
aF0.175
aF0.1998
aF0.1993
aF0.2151
aF0.2079
aF0.2012
aF0.1786
aF0.1979
aF0.2168
aF0.1773
aF0.2051
aF0.2068
aF0.2187
aF0.1887
aF0.2091
aF0.2163
aF0.1749
aF0.1891
aF0.2182
aF0.2024
aF0.2085
aF0.2159
aF0.2035
aF0.1829
aF0.2134
aF0.1808
aF0.2005
aF0.2117
aF0.2136
aF0.2051
aF0.178
aF0.1748
aF0.1773
aF0.2185
aF0.184
aF0.1836
aF0.2014
aF0.2118
aF0.1798
aF0.2113
aF0.2038
aF0.2199
aF0.2135
aF0.2176
aF0.2069
aF0.1766
aF0.1747
aF0.1872
aF0.1919
aF0.2072
aF0.2131
aF0.1813
aF0.1855
aF0.2019
aF0.1854
aF0.2013
aF0.2016
aF0.2008
aF0.1925
aF0.2026
aF0.2011
aF0.2169
aF0.21
aF0.1898
aF0.2104
aF0.2149
aF0.1731
aF0.1908
aF0.1844
aF0.1944
aF0.2125
aF0.2147
aF0.2073
aF0.208
aF0.2077
aF0.2065
aF0.1976
aF0.2121
aF0.1809
aF0.2169
aF0.1895
aF0.1793
aF0.2078
aF0.2006
aF0.2142
aF0.1918
aF0.2004
aF0.1884
aF0.2039
aF0.1961
aF0.1844
aF0.1766
aF0.1742
aF0.1893
aF0.1864
aF0.1873
aF0.2135
aF0.2095
aF0.1851
aF0.175
aF0.1884
aF0.2083
aF0.1998
aF0.1878
aF0.2077
aF0.1896
aF0.2135
aF0.1746
aF0.2184
aF0.1831
aF0.2035
aF0.2023
aF0.1744
aF0.1801
aF0.2143
aF0.1733
aF0.1857
aF0.2002
aF0.2126
aF0.2137
aF0.1813
aF0.1672
aF0.1643
aF0.1615
aF0.1587
aF0.1558
aF0.153
aF0.1502
aF0.1473
aF0.1445
aF0.1417
aF0.1388
aF0.136
aF0.1332
aF0.1303
aF0.1275
aF0.1247
aF0.1218
aF0.119
aF0.1162
aF0.1133
aF0.1105
aF0.1077
aF0.1048
aF0.102
aF0.0992
aF0.0963
aF0.0935
aF0.0907
aF0.0878
aF0.085
aF0.0822
aF0.0793
aF0.0765
aF0.0737
aF0.0708
aF0.068
aF0.0652
aF0.0623
aF0.0595
aF0.0567
aF0.0538
aF0.051
aF0.0482
aF0.0453
aF0.0425
aF0.0397
aF0.0368
aF0.034
aF0.0312
aF0.0283
aF0.0255
aF0.0227
aF0.0198
aF0.017
aF0.0142
aF0.0113
aF0.0085
aF0.0057
aF0.0028
aF0.0
aI0
aI0
aI0
aI0
aI0
aI0
aI0
aI0
aI0
aI0
aI0
aI0
aI0
aI0
aI0
aI0
aI0
aI0
aI0
aI0
aI0
aI0
aI0
aI0
aI0
aI0
aI0
aI0
aI0
aI0
aI0
aI0
aI0
aI0
aI0
aI0
aI0
aI0
aI0
aI0
aI0
aI0
aI0
aI0
aI0
aI0
aI0
aI0
aI0
aI0
aI0
aI0
aI0
aI0
aI0
aI0
aI0
aI0
aI0
asI22
(lp17
F0.004
aF0.0108
aF0.014
aF0.0172
aF0.0118
aF0.0227
aF0.0188
aF0.0291
aF0.0277
aF0.0347
aF0.0383
aF0.0351
aF0.0364
aF0.0467
aF0.0469
aF0.0484
aF0.05
aF0.0492
aF0.0514
aF0.0627
aF0.0632
aF0.0689
aF0.0722
aF0.0665
aF0.0747
aF0.0787
aF0.0833
aF0.0842
aF0.0864
aF0.0851
aF0.0925
aF0.0946
aF0.0954
aF0.098
aF0.0969
aF0.1038
aF0.1118
aF0.1128
aF0.11
aF0.1135
aF0.1207
aF0.1232
aF0.1283
aF0.1251
aF0.1336
aF0.1277
aF0.1392
aF0.1338
aF0.1414
aF0.1393
aF0.1449
aF0.1483
aF0.1516
aF0.1535
aF0.158
aF0.1587
aF0.159
aF0.1653
aF0.1703
aF0.1765
aF0.1729
aF0.1708
aF0.2106
aF0.1756
aF0.1876
aF0.1895
aF0.1825
aF0.1988
aF0.209
aF0.2094
aF0.1746
aF0.1817
aF0.1981
aF0.1981
aF0.1921
aF0.197
aF0.1882
aF0.2003
aF0.2121
aF0.1981
aF0.2083
aF0.179
aF0.2022
aF0.1908
aF0.1994
aF0.1777
aF0.1813
aF0.1814
aF0.1896
aF0.1999
aF0.1804
aF0.2016
aF0.2177
aF0.1804
aF0.2079
aF0.1926
aF0.1848
aF0.212
aF0.201
aF0.1894
aF0.1987
aF0.2124
aF0.17
aF0.1996
aF0.1809
aF0.2135
aF0.175
aF0.2112
aF0.1841
aF0.2187
aF0.1972
aF0.2064
aF0.1984
aF0.2101
aF0.2074
aF0.2165
aF0.1764
aF0.2045
aF0.219
aF0.1775
aF0.1789
aF0.2121
aF0.1769
aF0.2042
aF0.2032
aF0.2147
aF0.2144
aF0.1707
aF0.196
aF0.1936
aF0.2171
aF0.1723
aF0.1849
aF0.1826
aF0.1966
aF0.2092
aF0.2005
aF0.1728
aF0.1899
aF0.1839
aF0.2158
aF0.1942
aF0.1967
aF0.1716
aF0.2128
aF0.1901
aF0.176
aF0.183
aF0.2092
aF0.2052
aF0.194
aF0.2157
aF0.1846
aF0.2117
aF0.2177
aF0.1934
aF0.1858
aF0.176
aF0.194
aF0.1839
aF0.184
aF0.177
aF0.1743
aF0.1792
aF0.2042
aF0.1771
aF0.1849
aF0.1845
aF0.2185
aF0.1995
aF0.1816
aF0.1801
aF0.1969
aF0.2157
aF0.1955
aF0.1902
aF0.1863
aF0.2109
aF0.1905
aF0.2065
aF0.1759
aF0.1672
aF0.1643
aF0.1615
aF0.1587
aF0.1558
aF0.153
aF0.1502
aF0.1473
aF0.1445
aF0.1417
aF0.1388
aF0.136
aF0.1332
aF0.1303
aF0.1275
aF0.1247
aF0.1218
aF0.119
aF0.1162
aF0.1133
aF0.1105
aF0.1077
aF0.1048
aF0.102
aF0.0992
aF0.0963
aF0.0935
aF0.0907
aF0.0878
aF0.085
aF0.0822
aF0.0793
aF0.0765
aF0.0737
aF0.0708
aF0.068
aF0.0652
aF0.0623
aF0.0595
aF0.0567
aF0.0538
aF0.051
aF0.0482
aF0.0453
aF0.0425
aF0.0397
aF0.0368
aF0.034
aF0.0312
aF0.0283
aF0.0255
aF0.0227
aF0.0198
aF0.017
aF0.0142
aF0.0113
aF0.0085
aF0.0057
aF0.0028
aF0.0
aI0
aI0
aI0
aI0
aI0
aI0
aI0
aI0
aI0
aI0
aI0
aI0
aI0
aI0
aI0
aI0
aI0
aI0
aI0
aI0
aI0
aI0
aI0
aI0
aI0
aI0
aI0
aI0
aI0
aI0
aI0
aI0
aI0
aI0
aI0
aI0
aI0
aI0
aI0
aI0
aI0
aI0
aI0
aI0
aI0
aI0
aI0
aI0
aI0
aI0
aI0
aI0
aI0
aI0
aI0
aI0
aI0
aI0
aI0
assVx
p18
(lp19
I0
aI1
aI2
aI3
aI4
aI5
aI6
aI7
aI8
aI9
aI10
aI11
aI12
aI13
aI14
aI15
aI16
aI17
aI18
aI19
aI20
aI21
aI22
aI23
aI24
aI25
aI26
aI27
aI28
aI29
aI30
aI31
aI32
aI33
aI34
aI35
aI36
aI37
aI38
aI39
aI40
aI41
aI42
aI43
aI44
aI45
aI46
aI47
aI48
aI49
aI50
aI51
aI52
aI53
aI54
aI55
aI56
aI57
aI58
aI59
aI60
aI61
aI62
aI63
aI64
aI65
aI66
aI67
aI68
aI69
aI70
aI71
aI72
aI73
aI74
aI75
aI76
aI77
aI78
aI79
aI80
aI81
aI82
aI83
aI84
aI85
aI86
aI87
aI88
aI89
aI90
aI91
aI92
aI93
aI94
aI95
aI96
aI97
aI98
aI99
aI100
aI101
aI102
aI103
aI104
aI105
aI106
aI107
aI108
aI109
aI110
aI111
aI112
aI113
aI114
aI115
aI116
aI117
aI118
aI119
aI120
aI121
aI122
aI123
aI124
aI125
aI126
aI127
aI128
aI129
aI130
aI131
aI132
aI133
aI134
aI135
aI136
aI137
aI138
aI139
aI140
aI141
aI142
aI143
aI144
aI145
aI146
aI147
aI148
aI149
aI150
aI151
aI152
aI153
aI154
aI155
aI156
aI157
aI158
aI159
aI160
aI161
aI162
aI163
aI164
aI165
aI166
aI167
aI168
aI169
aI170
aI171
aI172
aI173
aI174
aI175
aI176
aI177
aI178
aI179
aI180
aI181
aI182
aI183
aI184
aI185
aI186
aI187
aI188
aI189
aI190
aI191
aI192
aI193
aI194
aI195
aI196
aI197
aI198
aI199
aI200
aI201
aI202
aI203
aI204
aI205
aI206
aI207
aI208
aI209
aI210
aI211
aI212
aI213
aI214
aI215
aI216
aI217
aI218
aI219
aI220
aI221
aI222
aI223
aI224
aI225
aI226
aI227
aI228
aI229
aI230
aI231
aI232
aI233
aI234
aI235
aI236
aI237
aI238
aI239
aI240
aI241
aI242
aI243
aI244
aI245
aI246
aI247
aI248
aI249
aI250
aI251
aI252
aI253
aI254
aI255
aI256
aI257
aI258
aI259
aI260
aI261
aI262
aI263
aI264
aI265
aI266
aI267
aI268
aI269
aI270
aI271
aI272
aI273
aI274
aI275
aI276
aI277
aI278
aI279
aI280
aI281
aI282
aI283
aI284
aI285
aI286
aI287
aI288
aI289
aI290
aI291
aI292
aI293
aI294
aI295
aI296
aI297
aI298
aI299
asVy
p20
(lp21
I0
aI1
aI2
aI3
aI4
aI5
aI6
aI7
aI8
aI9
aI10
aI11
aI12
aI13
aI14
aI15
aI16
aI17
aI18
aI19
aI20
aI21
aI22
aI23
aI24
aI25
aI26
aI27
aI28
aI29
aI30
aI31
aI32
aI33
aI34
aI35
aI36
aI37
aI38
aI39
aI40
aI41
aI42
aI43
aI44
aI45
aI46
aI47
aI48
aI49
aI50
aI51
aI52
aI53
aI54
aI55
aI56
aI57
aI58
aI59
aI60
aI61
aI62
aI63
aI64
aI65
aI66
aI67
aI68
aI69
aI70
aI71
aI72
aI73
aI74
aI75
aI76
aI77
aI78
aI79
aI80
aI81
aI82
aI83
aI84
aI85
aI86
aI87
aI88
aI89
aI90
aI91
aI92
aI93
aI94
aI95
aI96
aI97
aI98
aI99
aI100
aI101
aI102
aI103
aI104
aI105
aI106
aI107
aI108
aI109
aI110
aI111
aI112
aI113
aI114
aI115
aI116
aI117
aI118
aI119
aI120
aI121
aI122
aI123
aI124
aI125
aI126
aI127
aI128
aI129
aI130
aI131
aI132
aI133
aI134
aI135
aI136
aI137
aI138
aI139
aI140
aI141
aI142
aI143
aI144
aI145
aI146
aI147
aI148
aI149
aI150
aI151
aI152
aI153
aI154
aI155
aI156
aI157
aI158
aI159
aI160
aI161
aI162
aI163
aI164
aI165
aI166
aI167
aI168
aI169
aI170
aI171
aI172
aI173
aI174
aI175
aI176
aI177
aI178
aI179
aI180
aI181
aI182
aI183
aI184
aI185
aI186
aI187
aI188
aI189
aI190
aI191
aI192
aI193
aI194
aI195
aI196
aI197
aI198
aI199
aI200
aI201
aI202
aI203
aI204
aI205
aI206
aI207
aI208
aI209
aI210
aI211
aI212
aI213
aI214
aI215
aI216
aI217
aI218
aI219
aI220
aI221
aI222
aI223
aI224
aI225
aI226
aI227
aI228
aI229
aI230
aI231
aI232
aI233
aI234
aI235
aI236
aI237
aI238
aI239
aI240
aI241
aI242
aI243
aI244
aI245
aI246
aI247
aI248
aI249
aI250
aI251
aI252
aI253
aI254
aI255
aI256
aI257
aI258
aI259
aI260
aI261
aI262
aI263
aI264
aI265
aI266
aI267
aI268
aI269
aI270
aI271
aI272
aI273
aI274
aI275
aI276
aI277
aI278
aI279
aI280
aI281
aI282
aI283
aI284
aI285
aI286
aI287
aI288
aI289
aI290
aI291
aI292
aI293
aI294
aI295
aI296
aI297
aI298
aI299
asVd_2
p22
g7
sVd_low_2
p23
g13
sb.