ccopy_reg
_reconstructor
p0
(cPycharmProjects.MPC.est_de
TrafficDemand
p1
c__builtin__
object
p2
Ntp3
Rp4
(dp5
Vd
p6
(dp7
I11
(lp8
F0.016
aF0.041
aF0.0587
aF0.0523
aF0.0482
aF0.034
aF0.0386
aF0.0858
aF0.0453
aF0.0527
aF0.0691
aF0.0657
aF0.0774
aF0.0771
aF0.1268
aF0.1047
aF0.1135
aF0.1043
aF0.1241
aF0.1432
aF0.1262
aF0.125
aF0.1645
aF0.1674
aF0.1622
aF0.1681
aF0.184
aF0.1952
aF0.1852
aF0.197
aF0.209
aF0.1786
aF0.221
aF0.2188
aF0.1978
aF0.2024
aF0.2067
aF0.2462
aF0.2343
aF0.2404
aF0.2222
aF0.2674
aF0.2776
aF0.2828
aF0.2773
aF0.2865
aF0.285
aF0.2993
aF0.2966
aF0.2928
aF0.2882
aF0.2858
aF0.3331
aF0.3142
aF0.3388
aF0.3409
aF0.3372
aF0.3319
aF0.3228
aF0.3616
aF0.3339
aF0.3586
aF0.3629
aF0.3391
aF0.3727
aF0.3643
aF0.3735
aF0.3399
aF0.3568
aF0.3634
aF0.3687
aF0.3592
aF0.3625
aF0.3724
aF0.3447
aF0.3618
aF0.3414
aF0.3755
aF0.3512
aF0.3796
aF0.3357
aF0.3314
aF0.3612
aF0.3621
aF0.3673
aF0.3642
aF0.3734
aF0.3799
aF0.3677
aF0.3743
aF0.3608
aF0.3456
aF0.3435
aF0.3595
aF0.3705
aF0.3692
aF0.337
aF0.3496
aF0.3673
aF0.3641
aF0.3629
aF0.3764
aF0.3419
aF0.3746
aF0.3394
aF0.3754
aF0.3406
aF0.3448
aF0.3501
aF0.3594
aF0.3422
aF0.3587
aF0.3444
aF0.376
aF0.3363
aF0.3534
aF0.3625
aF0.3578
aF0.3764
aF0.3638
aF0.3659
aF0.3314
aF0.3394
aF0.3776
aF0.3527
aF0.3741
aF0.347
aF0.3637
aF0.3328
aF0.3429
aF0.349
aF0.335
aF0.356
aF0.3488
aF0.3329
aF0.3563
aF0.3486
aF0.3407
aF0.3331
aF0.3525
aF0.3502
aF0.3681
aF0.3615
aF0.3766
aF0.3323
aF0.3529
aF0.3469
aF0.355
aF0.3632
aF0.3792
aF0.3394
aF0.3533
aF0.3339
aF0.3515
aF0.3647
aF0.355
aF0.3502
aF0.3659
aF0.3353
aF0.3599
aF0.3446
aF0.3697
aF0.3526
aF0.3652
aF0.3389
aF0.3589
aF0.3593
aF0.3541
aF0.3323
aF0.3364
aF0.3337
aF0.3766
aF0.3705
aF0.3774
aF0.3666
aF0.3628
aF0.3684
aF0.3387
aF0.354
aF0.3556
aF0.3307
aF0.3245
aF0.319
aF0.3135
aF0.308
aF0.3025
aF0.297
aF0.2915
aF0.286
aF0.2805
aF0.275
aF0.2695
aF0.264
aF0.2585
aF0.253
aF0.2475
aF0.242
aF0.2365
aF0.231
aF0.2255
aF0.22
aF0.2145
aF0.209
aF0.2035
aF0.198
aF0.1925
aF0.187
aF0.1815
aF0.176
aF0.1705
aF0.165
aF0.1595
aF0.154
aF0.1485
aF0.143
aF0.1375
aF0.132
aF0.1265
aF0.121
aF0.1155
aF0.11
aF0.1045
aF0.099
aF0.0935
aF0.088
aF0.0825
aF0.077
aF0.0715
aF0.066
aF0.0605
aF0.055
aF0.0495
aF0.044
aF0.0385
aF0.033
aF0.0275
aF0.022
aF0.0165
aF0.011
aF0.0055
aF0.0
aI0
aI0
aI0
aI0
aI0
aI0
aI0
aI0
aI0
aI0
aI0
aI0
aI0
aI0
aI0
aI0
aI0
aI0
aI0
aI0
aI0
aI0
aI0
aI0
aI0
aI0
aI0
aI0
aI0
aI0
aI0
aI0
aI0
aI0
aI0
aI0
aI0
aI0
aI0
aI0
aI0
aI0
aI0
aI0
aI0
aI0
aI0
aI0
aI0
aI0
aI0
aI0
aI0
aI0
aI0
aI0
aI0
aI0
aI0
asI12
(lp9
F0.0313
aF0.0405
aF0.0126
aF0.0251
aF0.0714
aF0.0334
aF0.0492
aF0.0662
aF0.0742
aF0.0822
aF0.0732
aF0.1007
aF0.1049
aF0.0928
aF0.0784
aF0.0848
aF0.1243
aF0.1102
aF0.1054
aF0.1288
aF0.153
aF0.1255
aF0.1311
aF0.1761
aF0.1766
aF0.1765
aF0.1518
aF0.1644
aF0.1659
aF0.1796
aF0.1959
aF0.1934
aF0.2162
aF0.2222
aF0.2104
aF0.2052
aF0.2154
aF0.2102
aF0.2161
aF0.262
aF0.2496
aF0.2408
aF0.2352
aF0.2707
aF0.2865
aF0.2677
aF0.2549
aF0.3024
aF0.2689
aF0.2826
aF0.3184
aF0.2961
aF0.3213
aF0.3073
aF0.3396
aF0.3353
aF0.333
aF0.3389
aF0.3404
aF0.3372
aF0.3692
aF0.3318
aF0.3397
aF0.3718
aF0.3774
aF0.3455
aF0.3469
aF0.358
aF0.3534
aF0.3319
aF0.3392
aF0.3728
aF0.3361
aF0.3684
aF0.3751
aF0.3707
aF0.348
aF0.3796
aF0.3513
aF0.3604
aF0.3547
aF0.3537
aF0.3405
aF0.3315
aF0.331
aF0.3539
aF0.3635
aF0.3417
aF0.3667
aF0.3732
aF0.378
aF0.3597
aF0.3371
aF0.368
aF0.3692
aF0.3315
aF0.3566
aF0.3593
aF0.3771
aF0.3396
aF0.3384
aF0.3476
aF0.3648
aF0.3337
aF0.3336
aF0.3569
aF0.3404
aF0.3684
aF0.3586
aF0.3544
aF0.3603
aF0.3636
aF0.3583
aF0.3465
aF0.3411
aF0.333
aF0.3752
aF0.3506
aF0.3668
aF0.3358
aF0.3764
aF0.3757
aF0.3589
aF0.3756
aF0.3559
aF0.3799
aF0.366
aF0.3538
aF0.3727
aF0.3371
aF0.3418
aF0.3481
aF0.3422
aF0.3344
aF0.3316
aF0.3326
aF0.3383
aF0.3394
aF0.3508
aF0.3516
aF0.3676
aF0.3536
aF0.3695
aF0.3306
aF0.3427
aF0.3758
aF0.3482
aF0.3348
aF0.3632
aF0.3457
aF0.3793
aF0.3408
aF0.3379
aF0.3744
aF0.3772
aF0.3774
aF0.3669
aF0.3794
aF0.3346
aF0.3545
aF0.3573
aF0.3535
aF0.3389
aF0.3524
aF0.3526
aF0.3603
aF0.3772
aF0.3777
aF0.3319
aF0.3423
aF0.3717
aF0.3391
aF0.3552
aF0.3345
aF0.3426
aF0.3435
aF0.353
aF0.3547
aF0.33
aF0.3341
aF0.3451
aF0.3245
aF0.319
aF0.3135
aF0.308
aF0.3025
aF0.297
aF0.2915
aF0.286
aF0.2805
aF0.275
aF0.2695
aF0.264
aF0.2585
aF0.253
aF0.2475
aF0.242
aF0.2365
aF0.231
aF0.2255
aF0.22
aF0.2145
aF0.209
aF0.2035
aF0.198
aF0.1925
aF0.187
aF0.1815
aF0.176
aF0.1705
aF0.165
aF0.1595
aF0.154
aF0.1485
aF0.143
aF0.1375
aF0.132
aF0.1265
aF0.121
aF0.1155
aF0.11
aF0.1045
aF0.099
aF0.0935
aF0.088
aF0.0825
aF0.077
aF0.0715
aF0.066
aF0.0605
aF0.055
aF0.0495
aF0.044
aF0.0385
aF0.033
aF0.0275
aF0.022
aF0.0165
aF0.011
aF0.0055
aF0.0
aI0
aI0
aI0
aI0
aI0
aI0
aI0
aI0
aI0
aI0
aI0
aI0
aI0
aI0
aI0
aI0
aI0
aI0
aI0
aI0
aI0
aI0
aI0
aI0
aI0
aI0
aI0
aI0
aI0
aI0
aI0
aI0
aI0
aI0
aI0
aI0
aI0
aI0
aI0
aI0
aI0
aI0
aI0
aI0
aI0
aI0
aI0
aI0
aI0
aI0
aI0
aI0
aI0
aI0
aI0
aI0
aI0
aI0
aI0
asI21
(lp10
F0.0055
aF0.0068
aF0.0099
aF0.0158
aF0.0218
aF0.0175
aF0.025
aF0.0279
aF0.027
aF0.0394
aF0.0405
aF0.0414
aF0.0483
aF0.0436
aF0.0487
aF0.0572
aF0.0568
aF0.0636
aF0.07
aF0.0689
aF0.0698
aF0.0708
aF0.0819
aF0.0773
aF0.0802
aF0.0888
aF0.0901
aF0.0967
aF0.0985
aF0.0986
aF0.1012
aF0.1034
aF0.1133
aF0.1197
aF0.1216
aF0.1175
aF0.1276
aF0.1234
aF0.135
aF0.1366
aF0.1404
aF0.1445
aF0.145
aF0.1512
aF0.1565
aF0.1515
aF0.1606
aF0.1632
aF0.1687
aF0.1686
aF0.172
aF0.1701
aF0.1785
aF0.182
aF0.1855
aF0.1865
aF0.1874
aF0.1904
aF0.2028
aF0.2042
aF0.2056
aF0.2446
aF0.2275
aF0.2173
aF0.2323
aF0.2199
aF0.2411
aF0.2217
aF0.2035
aF0.2443
aF0.2305
aF0.2079
aF0.2069
aF0.2003
aF0.2177
aF0.2493
aF0.226
aF0.216
aF0.2341
aF0.2477
aF0.2289
aF0.2418
aF0.2303
aF0.234
aF0.2465
aF0.2419
aF0.2383
aF0.2489
aF0.2485
aF0.2079
aF0.2049
aF0.2156
aF0.2341
aF0.2217
aF0.2177
aF0.2272
aF0.2196
aF0.2094
aF0.2062
aF0.2334
aF0.2252
aF0.2236
aF0.2337
aF0.2134
aF0.234
aF0.238
aF0.211
aF0.2304
aF0.2491
aF0.2183
aF0.2065
aF0.2197
aF0.2157
aF0.2165
aF0.2143
aF0.2345
aF0.2144
aF0.2141
aF0.2375
aF0.2395
aF0.2202
aF0.2463
aF0.2068
aF0.2124
aF0.2238
aF0.202
aF0.2493
aF0.2247
aF0.2467
aF0.2048
aF0.2405
aF0.218
aF0.2444
aF0.2304
aF0.2211
aF0.2412
aF0.2025
aF0.2288
aF0.2349
aF0.2279
aF0.2046
aF0.2179
aF0.2466
aF0.2401
aF0.2306
aF0.2149
aF0.2236
aF0.2472
aF0.2405
aF0.2177
aF0.2267
aF0.2173
aF0.2221
aF0.2083
aF0.2415
aF0.2167
aF0.2358
aF0.2205
aF0.2231
aF0.2119
aF0.2046
aF0.2426
aF0.2372
aF0.2282
aF0.2439
aF0.2493
aF0.2441
aF0.2497
aF0.2396
aF0.2075
aF0.2344
aF0.2103
aF0.2245
aF0.2311
aF0.2163
aF0.2362
aF0.221
aF0.2376
aF0.2128
aF0.2023
aF0.2209
aF0.1967
aF0.1933
aF0.19
aF0.1867
aF0.1833
aF0.18
aF0.1767
aF0.1733
aF0.17
aF0.1667
aF0.1633
aF0.16
aF0.1567
aF0.1533
aF0.15
aF0.1467
aF0.1433
aF0.14
aF0.1367
aF0.1333
aF0.13
aF0.1267
aF0.1233
aF0.12
aF0.1167
aF0.1133
aF0.11
aF0.1067
aF0.1033
aF0.1
aF0.0967
aF0.0933
aF0.09
aF0.0867
aF0.0833
aF0.08
aF0.0767
aF0.0733
aF0.07
aF0.0667
aF0.0633
aF0.06
aF0.0567
aF0.0533
aF0.05
aF0.0467
aF0.0433
aF0.04
aF0.0367
aF0.0333
aF0.03
aF0.0267
aF0.0233
aF0.02
aF0.0167
aF0.0133
aF0.01
aF0.0067
aF0.0033
aF0.0
aI0
aI0
aI0
aI0
aI0
aI0
aI0
aI0
aI0
aI0
aI0
aI0
aI0
aI0
aI0
aI0
aI0
aI0
aI0
aI0
aI0
aI0
aI0
aI0
aI0
aI0
aI0
aI0
aI0
aI0
aI0
aI0
aI0
aI0
aI0
aI0
aI0
aI0
aI0
aI0
aI0
aI0
aI0
aI0
aI0
aI0
aI0
aI0
aI0
aI0
aI0
aI0
aI0
aI0
aI0
aI0
aI0
aI0
aI0
asI22
(lp11
F0.0016
aF0.007
aF0.015
aF0.0141
aF0.0215
aF0.0217
aF0.0275
aF0.0249
aF0.0315
aF0.032
aF0.0338
aF0.0426
aF0.0469
aF0.0468
aF0.0475
aF0.0554
aF0.0582
aF0.0657
aF0.069
aF0.0662
aF0.0699
aF0.0783
aF0.0815
aF0.0783
aF0.082
aF0.0899
aF0.0877
aF0.098
aF0.103
aF0.1059
aF0.1075
aF0.111
aF0.1116
aF0.1157
aF0.1202
aF0.1224
aF0.1232
aF0.1264
aF0.1321
aF0.1386
aF0.1382
aF0.1368
aF0.1403
aF0.1492
aF0.1538
aF0.1591
aF0.1598
aF0.1612
aF0.1688
aF0.1729
aF0.1719
aF0.1719
aF0.1825
aF0.1784
aF0.1877
aF0.1871
aF0.1872
aF0.1902
aF0.2017
aF0.199
aF0.2006
aF0.2031
aF0.2229
aF0.2008
aF0.2311
aF0.2108
aF0.2341
aF0.2085
aF0.2473
aF0.245
aF0.2428
aF0.2325
aF0.2116
aF0.2439
aF0.2457
aF0.2013
aF0.2044
aF0.2039
aF0.2143
aF0.2484
aF0.231
aF0.2326
aF0.2002
aF0.2176
aF0.2197
aF0.2028
aF0.2347
aF0.2052
aF0.2182
aF0.2396
aF0.2192
aF0.2193
aF0.2085
aF0.2117
aF0.2439
aF0.2343
aF0.2021
aF0.2243
aF0.2155
aF0.2029
aF0.2482
aF0.2075
aF0.2368
aF0.2055
aF0.2344
aF0.2266
aF0.2043
aF0.2173
aF0.2481
aF0.2454
aF0.2373
aF0.2498
aF0.2051
aF0.2499
aF0.2379
aF0.2192
aF0.2118
aF0.247
aF0.244
aF0.2122
aF0.2221
aF0.2449
aF0.2116
aF0.2004
aF0.222
aF0.2367
aF0.2259
aF0.208
aF0.2388
aF0.2033
aF0.2258
aF0.2183
aF0.2417
aF0.2479
aF0.2073
aF0.2399
aF0.2394
aF0.2122
aF0.2184
aF0.2387
aF0.2462
aF0.2356
aF0.2311
aF0.2447
aF0.2426
aF0.211
aF0.2045
aF0.2165
aF0.2065
aF0.2016
aF0.2433
aF0.2033
aF0.2322
aF0.2263
aF0.2288
aF0.2194
aF0.2307
aF0.2094
aF0.246
aF0.2258
aF0.2454
aF0.2457
aF0.2267
aF0.2064
aF0.2384
aF0.2485
aF0.2144
aF0.2255
aF0.2406
aF0.2451
aF0.2007
aF0.225
aF0.2441
aF0.2499
aF0.2405
aF0.2325
aF0.2493
aF0.2363
aF0.2424
aF0.2348
aF0.221
aF0.1967
aF0.1933
aF0.19
aF0.1867
aF0.1833
aF0.18
aF0.1767
aF0.1733
aF0.17
aF0.1667
aF0.1633
aF0.16
aF0.1567
aF0.1533
aF0.15
aF0.1467
aF0.1433
aF0.14
aF0.1367
aF0.1333
aF0.13
aF0.1267
aF0.1233
aF0.12
aF0.1167
aF0.1133
aF0.11
aF0.1067
aF0.1033
aF0.1
aF0.0967
aF0.0933
aF0.09
aF0.0867
aF0.0833
aF0.08
aF0.0767
aF0.0733
aF0.07
aF0.0667
aF0.0633
aF0.06
aF0.0567
aF0.0533
aF0.05
aF0.0467
aF0.0433
aF0.04
aF0.0367
aF0.0333
aF0.03
aF0.0267
aF0.0233
aF0.02
aF0.0167
aF0.0133
aF0.01
aF0.0067
aF0.0033
aF0.0
aI0
aI0
aI0
aI0
aI0
aI0
aI0
aI0
aI0
aI0
aI0
aI0
aI0
aI0
aI0
aI0
aI0
aI0
aI0
aI0
aI0
aI0
aI0
aI0
aI0
aI0
aI0
aI0
aI0
aI0
aI0
aI0
aI0
aI0
aI0
aI0
aI0
aI0
aI0
aI0
aI0
aI0
aI0
aI0
aI0
aI0
aI0
aI0
aI0
aI0
aI0
aI0
aI0
aI0
aI0
aI0
aI0
aI0
aI0
assVd_low
p12
(dp13
I11
(lp14
F0.0017
aF0.0201
aF0.028
aF0.0359
aF0.0654
aF0.0523
aF0.0474
aF0.0747
aF0.066
aF0.081
aF0.0811
aF0.09
aF0.0843
aF0.1135
aF0.0842
aF0.0875
aF0.12
aF0.0994
aF0.125
aF0.1423
aF0.1243
aF0.1246
aF0.1466
aF0.1537
aF0.1558
aF0.1404
aF0.1531
aF0.1686
aF0.1862
aF0.1641
aF0.1724
aF0.1892
aF0.1758
aF0.1802
aF0.1765
aF0.224
aF0.2072
aF0.1916
aF0.2114
aF0.2164
aF0.2491
aF0.2325
aF0.2342
aF0.2585
aF0.2429
aF0.2268
aF0.2313
aF0.2553
aF0.2548
aF0.2572
aF0.293
aF0.2885
aF0.2629
aF0.2745
aF0.2708
aF0.2762
aF0.3131
aF0.2902
aF0.3378
aF0.3277
aF0.3462
aF0.3021
aF0.3493
aF0.3024
aF0.3412
aF0.3011
aF0.3294
aF0.3435
aF0.3223
aF0.3239
aF0.3316
aF0.3378
aF0.3057
aF0.3321
aF0.3496
aF0.3314
aF0.3177
aF0.3295
aF0.3065
aF0.3201
aF0.3484
aF0.3365
aF0.3262
aF0.3016
aF0.3381
aF0.3168
aF0.3241
aF0.3217
aF0.3017
aF0.3327
aF0.3273
aF0.31
aF0.3091
aF0.302
aF0.3008
aF0.314
aF0.3418
aF0.3431
aF0.3181
aF0.3281
aF0.3087
aF0.3022
aF0.3329
aF0.3325
aF0.35
aF0.325
aF0.3411
aF0.3021
aF0.3466
aF0.3
aF0.3126
aF0.311
aF0.3303
aF0.3477
aF0.3224
aF0.3091
aF0.3495
aF0.3221
aF0.3349
aF0.317
aF0.3164
aF0.3222
aF0.3283
aF0.3361
aF0.3129
aF0.3306
aF0.3297
aF0.3451
aF0.3023
aF0.3222
aF0.3406
aF0.3014
aF0.3432
aF0.3033
aF0.321
aF0.3304
aF0.3117
aF0.3094
aF0.3033
aF0.3283
aF0.3094
aF0.3185
aF0.3195
aF0.3467
aF0.3005
aF0.3323
aF0.3238
aF0.3392
aF0.3244
aF0.3334
aF0.3049
aF0.3218
aF0.3038
aF0.3216
aF0.3377
aF0.3122
aF0.3116
aF0.3346
aF0.3463
aF0.3275
aF0.347
aF0.3034
aF0.3319
aF0.3343
aF0.3404
aF0.3283
aF0.3458
aF0.3086
aF0.3105
aF0.3227
aF0.3322
aF0.337
aF0.3458
aF0.3302
aF0.3138
aF0.3325
aF0.3469
aF0.3009
aF0.3068
aF0.3202
aF0.3499
aF0.295
aF0.29
aF0.285
aF0.28
aF0.275
aF0.27
aF0.265
aF0.26
aF0.255
aF0.25
aF0.245
aF0.24
aF0.235
aF0.23
aF0.225
aF0.22
aF0.215
aF0.21
aF0.205
aF0.2
aF0.195
aF0.19
aF0.185
aF0.18
aF0.175
aF0.17
aF0.165
aF0.16
aF0.155
aF0.15
aF0.145
aF0.14
aF0.135
aF0.13
aF0.125
aF0.12
aF0.115
aF0.11
aF0.105
aF0.1
aF0.095
aF0.09
aF0.085
aF0.08
aF0.075
aF0.07
aF0.065
aF0.06
aF0.055
aF0.05
aF0.045
aF0.04
aF0.035
aF0.03
aF0.025
aF0.02
aF0.015
aF0.01
aF0.005
aF0.0
aI0
aI0
aI0
aI0
aI0
aI0
aI0
aI0
aI0
aI0
aI0
aI0
aI0
aI0
aI0
aI0
aI0
aI0
aI0
aI0
aI0
aI0
aI0
aI0
aI0
aI0
aI0
aI0
aI0
aI0
aI0
aI0
aI0
aI0
aI0
aI0
aI0
aI0
aI0
aI0
aI0
aI0
aI0
aI0
aI0
aI0
aI0
aI0
aI0
aI0
aI0
aI0
aI0
aI0
aI0
aI0
aI0
aI0
aI0
asI12
(lp15
F0.0451
aF0.007
aF0.0319
aF0.0504
aF0.0521
aF0.0473
aF0.0575
aF0.0633
aF0.0493
aF0.0939
aF0.0734
aF0.07
aF0.0856
aF0.0869
aF0.1105
aF0.0777
aF0.1195
aF0.1058
aF0.1008
aF0.1007
aF0.1328
aF0.1296
aF0.12
aF0.1305
aF0.1629
aF0.1259
aF0.1682
aF0.1755
aF0.1613
aF0.153
aF0.1668
aF0.1824
aF0.1959
aF0.1994
aF0.2153
aF0.2213
aF0.2203
aF0.2257
aF0.1977
aF0.2393
aF0.2197
aF0.2241
aF0.2541
aF0.2412
aF0.2429
aF0.2733
aF0.2573
aF0.2739
aF0.2744
aF0.2488
aF0.2601
aF0.2556
aF0.3031
aF0.2734
aF0.2839
aF0.2814
aF0.287
aF0.3113
aF0.3024
aF0.2993
aF0.3106
aF0.3403
aF0.3346
aF0.3206
aF0.3383
aF0.3359
aF0.3117
aF0.349
aF0.3406
aF0.3396
aF0.3116
aF0.3196
aF0.3078
aF0.3057
aF0.3013
aF0.3425
aF0.3136
aF0.3243
aF0.3488
aF0.3406
aF0.3432
aF0.3446
aF0.3412
aF0.3251
aF0.3183
aF0.3164
aF0.3102
aF0.3303
aF0.3399
aF0.3458
aF0.3319
aF0.3401
aF0.3203
aF0.311
aF0.3101
aF0.3467
aF0.3195
aF0.316
aF0.3431
aF0.34
aF0.3307
aF0.3129
aF0.3296
aF0.3101
aF0.3043
aF0.3226
aF0.313
aF0.3437
aF0.3392
aF0.3442
aF0.3048
aF0.3114
aF0.3481
aF0.3208
aF0.302
aF0.3457
aF0.308
aF0.3075
aF0.305
aF0.3164
aF0.3048
aF0.3022
aF0.3055
aF0.3116
aF0.3166
aF0.3307
aF0.3181
aF0.3341
aF0.3144
aF0.3485
aF0.3079
aF0.3414
aF0.3429
aF0.3473
aF0.3261
aF0.3018
aF0.3498
aF0.3458
aF0.3016
aF0.3113
aF0.3044
aF0.309
aF0.3488
aF0.3316
aF0.3208
aF0.3194
aF0.335
aF0.3424
aF0.3021
aF0.3234
aF0.3038
aF0.332
aF0.3488
aF0.3109
aF0.347
aF0.3214
aF0.3489
aF0.3066
aF0.3381
aF0.3285
aF0.3293
aF0.3336
aF0.3077
aF0.3457
aF0.327
aF0.311
aF0.3453
aF0.3481
aF0.307
aF0.3165
aF0.3216
aF0.3116
aF0.3375
aF0.303
aF0.3322
aF0.3454
aF0.3135
aF0.3424
aF0.3104
aF0.3071
aF0.3455
aF0.295
aF0.29
aF0.285
aF0.28
aF0.275
aF0.27
aF0.265
aF0.26
aF0.255
aF0.25
aF0.245
aF0.24
aF0.235
aF0.23
aF0.225
aF0.22
aF0.215
aF0.21
aF0.205
aF0.2
aF0.195
aF0.19
aF0.185
aF0.18
aF0.175
aF0.17
aF0.165
aF0.16
aF0.155
aF0.15
aF0.145
aF0.14
aF0.135
aF0.13
aF0.125
aF0.12
aF0.115
aF0.11
aF0.105
aF0.1
aF0.095
aF0.09
aF0.085
aF0.08
aF0.075
aF0.07
aF0.065
aF0.06
aF0.055
aF0.05
aF0.045
aF0.04
aF0.035
aF0.03
aF0.025
aF0.02
aF0.015
aF0.01
aF0.005
aF0.0
aI0
aI0
aI0
aI0
aI0
aI0
aI0
aI0
aI0
aI0
aI0
aI0
aI0
aI0
aI0
aI0
aI0
aI0
aI0
aI0
aI0
aI0
aI0
aI0
aI0
aI0
aI0
aI0
aI0
aI0
aI0
aI0
aI0
aI0
aI0
aI0
aI0
aI0
aI0
aI0
aI0
aI0
aI0
aI0
aI0
aI0
aI0
aI0
aI0
aI0
aI0
aI0
aI0
aI0
aI0
aI0
aI0
aI0
aI0
asI21
(lp16
F0.0095
aF0.0097
aF0.0121
aF0.0111
aF0.0161
aF0.0232
aF0.0185
aF0.023
aF0.0234
aF0.0259
aF0.0362
aF0.038
aF0.0418
aF0.0436
aF0.0496
aF0.0454
aF0.0513
aF0.0485
aF0.0566
aF0.0599
aF0.064
aF0.0636
aF0.0675
aF0.0693
aF0.0737
aF0.0733
aF0.0779
aF0.0776
aF0.0833
aF0.0858
aF0.0892
aF0.0923
aF0.0997
aF0.1027
aF0.0982
aF0.1006
aF0.1044
aF0.1108
aF0.1085
aF0.1153
aF0.1134
aF0.1256
aF0.1214
aF0.1291
aF0.1332
aF0.1374
aF0.1403
aF0.1368
aF0.14
aF0.1444
aF0.1505
aF0.1466
aF0.1476
aF0.1597
aF0.1618
aF0.1653
aF0.1675
aF0.1678
aF0.1723
aF0.1675
aF0.1778
aF0.1957
aF0.1716
aF0.2092
aF0.2052
aF0.2183
aF0.1956
aF0.1751
aF0.1894
aF0.214
aF0.1892
aF0.1865
aF0.2004
aF0.2167
aF0.1808
aF0.1896
aF0.1737
aF0.22
aF0.1927
aF0.1879
aF0.204
aF0.1905
aF0.1779
aF0.2152
aF0.2044
aF0.1911
aF0.2122
aF0.1922
aF0.1917
aF0.1734
aF0.2096
aF0.1902
aF0.2131
aF0.201
aF0.2138
aF0.1745
aF0.2042
aF0.216
aF0.2027
aF0.1948
aF0.2136
aF0.2156
aF0.1923
aF0.1846
aF0.2136
aF0.2061
aF0.1952
aF0.1997
aF0.1705
aF0.2163
aF0.1784
aF0.1703
aF0.1858
aF0.1836
aF0.1807
aF0.2074
aF0.1956
aF0.1792
aF0.1863
aF0.1918
aF0.1996
aF0.2194
aF0.1716
aF0.2137
aF0.2001
aF0.187
aF0.1845
aF0.1969
aF0.1906
aF0.187
aF0.1859
aF0.1791
aF0.1792
aF0.2058
aF0.2006
aF0.1811
aF0.196
aF0.2198
aF0.175
aF0.1825
aF0.1993
aF0.1951
aF0.2041
aF0.214
aF0.2054
aF0.1746
aF0.1745
aF0.1832
aF0.1998
aF0.2122
aF0.2123
aF0.1798
aF0.1731
aF0.1775
aF0.1796
aF0.209
aF0.2057
aF0.2014
aF0.1781
aF0.201
aF0.192
aF0.1747
aF0.198
aF0.2051
aF0.1884
aF0.1799
aF0.1724
aF0.189
aF0.2134
aF0.1977
aF0.1857
aF0.2123
aF0.2035
aF0.2069
aF0.1887
aF0.2192
aF0.1706
aF0.2185
aF0.1971
aF0.1701
aF0.1877
aF0.1672
aF0.1643
aF0.1615
aF0.1587
aF0.1558
aF0.153
aF0.1502
aF0.1473
aF0.1445
aF0.1417
aF0.1388
aF0.136
aF0.1332
aF0.1303
aF0.1275
aF0.1247
aF0.1218
aF0.119
aF0.1162
aF0.1133
aF0.1105
aF0.1077
aF0.1048
aF0.102
aF0.0992
aF0.0963
aF0.0935
aF0.0907
aF0.0878
aF0.085
aF0.0822
aF0.0793
aF0.0765
aF0.0737
aF0.0708
aF0.068
aF0.0652
aF0.0623
aF0.0595
aF0.0567
aF0.0538
aF0.051
aF0.0482
aF0.0453
aF0.0425
aF0.0397
aF0.0368
aF0.034
aF0.0312
aF0.0283
aF0.0255
aF0.0227
aF0.0198
aF0.017
aF0.0142
aF0.0113
aF0.0085
aF0.0057
aF0.0028
aF0.0
aI0
aI0
aI0
aI0
aI0
aI0
aI0
aI0
aI0
aI0
aI0
aI0
aI0
aI0
aI0
aI0
aI0
aI0
aI0
aI0
aI0
aI0
aI0
aI0
aI0
aI0
aI0
aI0
aI0
aI0
aI0
aI0
aI0
aI0
aI0
aI0
aI0
aI0
aI0
aI0
aI0
aI0
aI0
aI0
aI0
aI0
aI0
aI0
aI0
aI0
aI0
aI0
aI0
aI0
aI0
aI0
aI0
aI0
aI0
asI22
(lp17
F0.0074
aF0.0111
aF0.0093
aF0.0162
aF0.0211
aF0.0196
aF0.0235
aF0.0286
aF0.0305
aF0.033
aF0.0313
aF0.0397
aF0.0435
aF0.0439
aF0.0404
aF0.0507
aF0.0539
aF0.0516
aF0.0547
aF0.056
aF0.0593
aF0.0623
aF0.0723
aF0.07
aF0.0714
aF0.0764
aF0.0832
aF0.0788
aF0.0883
aF0.0907
aF0.0912
aF0.0925
aF0.096
aF0.0967
aF0.1054
aF0.1008
aF0.105
aF0.1139
aF0.1133
aF0.1106
aF0.1226
aF0.1207
aF0.1192
aF0.1235
aF0.1317
aF0.1355
aF0.1326
aF0.134
aF0.1377
aF0.1437
aF0.1457
aF0.1542
aF0.1536
aF0.1595
aF0.1556
aF0.1631
aF0.1596
aF0.1645
aF0.1714
aF0.169
aF0.1746
aF0.2124
aF0.1738
aF0.2117
aF0.1898
aF0.1857
aF0.1702
aF0.1728
aF0.2096
aF0.2012
aF0.1851
aF0.1924
aF0.1965
aF0.1996
aF0.2163
aF0.1879
aF0.2037
aF0.2117
aF0.1805
aF0.2179
aF0.2027
aF0.1942
aF0.2164
aF0.1743
aF0.1834
aF0.1878
aF0.1817
aF0.1962
aF0.1706
aF0.2192
aF0.1785
aF0.22
aF0.1937
aF0.1756
aF0.2076
aF0.2156
aF0.2058
aF0.1942
aF0.1921
aF0.196
aF0.188
aF0.1759
aF0.1901
aF0.1978
aF0.1746
aF0.1758
aF0.1936
aF0.2009
aF0.1792
aF0.2114
aF0.1813
aF0.1783
aF0.1839
aF0.207
aF0.2147
aF0.1899
aF0.2133
aF0.1802
aF0.2054
aF0.207
aF0.2087
aF0.203
aF0.2035
aF0.181
aF0.1967
aF0.1783
aF0.191
aF0.1761
aF0.1757
aF0.1707
aF0.1878
aF0.2097
aF0.1788
aF0.2162
aF0.2086
aF0.2018
aF0.2108
aF0.1801
aF0.1973
aF0.1801
aF0.2111
aF0.2144
aF0.1843
aF0.1888
aF0.1952
aF0.1994
aF0.1975
aF0.2107
aF0.2028
aF0.1821
aF0.2192
aF0.2163
aF0.1886
aF0.1944
aF0.1753
aF0.1886
aF0.1751
aF0.178
aF0.1821
aF0.2198
aF0.2037
aF0.1929
aF0.1735
aF0.188
aF0.1954
aF0.2152
aF0.2141
aF0.1723
aF0.1893
aF0.2123
aF0.1998
aF0.1714
aF0.1927
aF0.2049
aF0.2111
aF0.2186
aF0.2162
aF0.1782
aF0.208
aF0.2148
aF0.188
aF0.1672
aF0.1643
aF0.1615
aF0.1587
aF0.1558
aF0.153
aF0.1502
aF0.1473
aF0.1445
aF0.1417
aF0.1388
aF0.136
aF0.1332
aF0.1303
aF0.1275
aF0.1247
aF0.1218
aF0.119
aF0.1162
aF0.1133
aF0.1105
aF0.1077
aF0.1048
aF0.102
aF0.0992
aF0.0963
aF0.0935
aF0.0907
aF0.0878
aF0.085
aF0.0822
aF0.0793
aF0.0765
aF0.0737
aF0.0708
aF0.068
aF0.0652
aF0.0623
aF0.0595
aF0.0567
aF0.0538
aF0.051
aF0.0482
aF0.0453
aF0.0425
aF0.0397
aF0.0368
aF0.034
aF0.0312
aF0.0283
aF0.0255
aF0.0227
aF0.0198
aF0.017
aF0.0142
aF0.0113
aF0.0085
aF0.0057
aF0.0028
aF0.0
aI0
aI0
aI0
aI0
aI0
aI0
aI0
aI0
aI0
aI0
aI0
aI0
aI0
aI0
aI0
aI0
aI0
aI0
aI0
aI0
aI0
aI0
aI0
aI0
aI0
aI0
aI0
aI0
aI0
aI0
aI0
aI0
aI0
aI0
aI0
aI0
aI0
aI0
aI0
aI0
aI0
aI0
aI0
aI0
aI0
aI0
aI0
aI0
aI0
aI0
aI0
aI0
aI0
aI0
aI0
aI0
aI0
aI0
aI0
assVx
p18
(lp19
I0
aI1
aI2
aI3
aI4
aI5
aI6
aI7
aI8
aI9
aI10
aI11
aI12
aI13
aI14
aI15
aI16
aI17
aI18
aI19
aI20
aI21
aI22
aI23
aI24
aI25
aI26
aI27
aI28
aI29
aI30
aI31
aI32
aI33
aI34
aI35
aI36
aI37
aI38
aI39
aI40
aI41
aI42
aI43
aI44
aI45
aI46
aI47
aI48
aI49
aI50
aI51
aI52
aI53
aI54
aI55
aI56
aI57
aI58
aI59
aI60
aI61
aI62
aI63
aI64
aI65
aI66
aI67
aI68
aI69
aI70
aI71
aI72
aI73
aI74
aI75
aI76
aI77
aI78
aI79
aI80
aI81
aI82
aI83
aI84
aI85
aI86
aI87
aI88
aI89
aI90
aI91
aI92
aI93
aI94
aI95
aI96
aI97
aI98
aI99
aI100
aI101
aI102
aI103
aI104
aI105
aI106
aI107
aI108
aI109
aI110
aI111
aI112
aI113
aI114
aI115
aI116
aI117
aI118
aI119
aI120
aI121
aI122
aI123
aI124
aI125
aI126
aI127
aI128
aI129
aI130
aI131
aI132
aI133
aI134
aI135
aI136
aI137
aI138
aI139
aI140
aI141
aI142
aI143
aI144
aI145
aI146
aI147
aI148
aI149
aI150
aI151
aI152
aI153
aI154
aI155
aI156
aI157
aI158
aI159
aI160
aI161
aI162
aI163
aI164
aI165
aI166
aI167
aI168
aI169
aI170
aI171
aI172
aI173
aI174
aI175
aI176
aI177
aI178
aI179
aI180
aI181
aI182
aI183
aI184
aI185
aI186
aI187
aI188
aI189
aI190
aI191
aI192
aI193
aI194
aI195
aI196
aI197
aI198
aI199
aI200
aI201
aI202
aI203
aI204
aI205
aI206
aI207
aI208
aI209
aI210
aI211
aI212
aI213
aI214
aI215
aI216
aI217
aI218
aI219
aI220
aI221
aI222
aI223
aI224
aI225
aI226
aI227
aI228
aI229
aI230
aI231
aI232
aI233
aI234
aI235
aI236
aI237
aI238
aI239
aI240
aI241
aI242
aI243
aI244
aI245
aI246
aI247
aI248
aI249
aI250
aI251
aI252
aI253
aI254
aI255
aI256
aI257
aI258
aI259
aI260
aI261
aI262
aI263
aI264
aI265
aI266
aI267
aI268
aI269
aI270
aI271
aI272
aI273
aI274
aI275
aI276
aI277
aI278
aI279
aI280
aI281
aI282
aI283
aI284
aI285
aI286
aI287
aI288
aI289
aI290
aI291
aI292
aI293
aI294
aI295
aI296
aI297
aI298
aI299
asVy
p20
(lp21
I0
aI1
aI2
aI3
aI4
aI5
aI6
aI7
aI8
aI9
aI10
aI11
aI12
aI13
aI14
aI15
aI16
aI17
aI18
aI19
aI20
aI21
aI22
aI23
aI24
aI25
aI26
aI27
aI28
aI29
aI30
aI31
aI32
aI33
aI34
aI35
aI36
aI37
aI38
aI39
aI40
aI41
aI42
aI43
aI44
aI45
aI46
aI47
aI48
aI49
aI50
aI51
aI52
aI53
aI54
aI55
aI56
aI57
aI58
aI59
aI60
aI61
aI62
aI63
aI64
aI65
aI66
aI67
aI68
aI69
aI70
aI71
aI72
aI73
aI74
aI75
aI76
aI77
aI78
aI79
aI80
aI81
aI82
aI83
aI84
aI85
aI86
aI87
aI88
aI89
aI90
aI91
aI92
aI93
aI94
aI95
aI96
aI97
aI98
aI99
aI100
aI101
aI102
aI103
aI104
aI105
aI106
aI107
aI108
aI109
aI110
aI111
aI112
aI113
aI114
aI115
aI116
aI117
aI118
aI119
aI120
aI121
aI122
aI123
aI124
aI125
aI126
aI127
aI128
aI129
aI130
aI131
aI132
aI133
aI134
aI135
aI136
aI137
aI138
aI139
aI140
aI141
aI142
aI143
aI144
aI145
aI146
aI147
aI148
aI149
aI150
aI151
aI152
aI153
aI154
aI155
aI156
aI157
aI158
aI159
aI160
aI161
aI162
aI163
aI164
aI165
aI166
aI167
aI168
aI169
aI170
aI171
aI172
aI173
aI174
aI175
aI176
aI177
aI178
aI179
aI180
aI181
aI182
aI183
aI184
aI185
aI186
aI187
aI188
aI189
aI190
aI191
aI192
aI193
aI194
aI195
aI196
aI197
aI198
aI199
aI200
aI201
aI202
aI203
aI204
aI205
aI206
aI207
aI208
aI209
aI210
aI211
aI212
aI213
aI214
aI215
aI216
aI217
aI218
aI219
aI220
aI221
aI222
aI223
aI224
aI225
aI226
aI227
aI228
aI229
aI230
aI231
aI232
aI233
aI234
aI235
aI236
aI237
aI238
aI239
aI240
aI241
aI242
aI243
aI244
aI245
aI246
aI247
aI248
aI249
aI250
aI251
aI252
aI253
aI254
aI255
aI256
aI257
aI258
aI259
aI260
aI261
aI262
aI263
aI264
aI265
aI266
aI267
aI268
aI269
aI270
aI271
aI272
aI273
aI274
aI275
aI276
aI277
aI278
aI279
aI280
aI281
aI282
aI283
aI284
aI285
aI286
aI287
aI288
aI289
aI290
aI291
aI292
aI293
aI294
aI295
aI296
aI297
aI298
aI299
asVd_2
p22
g7
sVd_low_2
p23
g13
sb.