ccopy_reg
_reconstructor
p0
(c__main__
TrafficDemand
p1
c__builtin__
object
p2
Ntp3
Rp4
(dp5
Vd
p6
(dp7
I11
(lp8
F0.0059
aF0.0184
aF0.0256
aF0.0365
aF0.0725
aF0.0593
aF0.0793
aF0.0707
aF0.1005
aF0.0853
aF0.0865
aF0.0914
aF0.1089
aF0.1016
aF0.0985
aF0.1329
aF0.1123
aF0.1593
aF0.1303
aF0.1351
aF0.144
aF0.1595
aF0.1569
aF0.1907
aF0.2034
aF0.1677
aF0.195
aF0.2294
aF0.2299
aF0.2341
aF0.2418
aF0.2255
aF0.2626
aF0.2287
aF0.2385
aF0.2606
aF0.2484
aF0.2832
aF0.261
aF0.2982
aF0.2687
aF0.2923
aF0.3251
aF0.3189
aF0.3399
aF0.3013
aF0.3178
aF0.3238
aF0.3502
aF0.3635
aF0.3594
aF0.377
aF0.3786
aF0.3784
aF0.3673
aF0.3673
aF0.3938
aF0.3993
aF0.3895
aF0.421
aF0.401
aF0.432
aF0.4041
aF0.4382
aF0.426
aF0.4334
aF0.4389
aF0.4352
aF0.4465
aF0.431
aF0.436
aF0.4031
aF0.4485
aF0.4379
aF0.442
aF0.4151
aF0.4147
aF0.4053
aF0.4213
aF0.4314
aF0.4082
aF0.4305
aF0.4236
aF0.4221
aF0.4481
aF0.4311
aF0.4343
aF0.4391
aF0.4376
aF0.4417
aF0.4161
aF0.4218
aF0.4169
aF0.4484
aF0.4447
aF0.4376
aF0.4412
aF0.4477
aF0.4311
aF0.4019
aF0.4266
aF0.4261
aF0.4472
aF0.4165
aF0.4417
aF0.4395
aF0.4304
aF0.4228
aF0.4059
aF0.4388
aF0.4412
aF0.4396
aF0.4084
aF0.4441
aF0.4263
aF0.4187
aF0.4017
aF0.4211
aF0.4414
aF0.4412
aF0.4326
aF0.4485
aF0.4341
aF0.4229
aF0.4215
aF0.4129
aF0.4021
aF0.4194
aF0.4245
aF0.4074
aF0.4159
aF0.4389
aF0.4385
aF0.4028
aF0.4133
aF0.4254
aF0.4188
aF0.4253
aF0.431
aF0.4069
aF0.4183
aF0.4473
aF0.4119
aF0.4001
aF0.4227
aF0.4351
aF0.4251
aF0.4009
aF0.4105
aF0.4031
aF0.4143
aF0.4466
aF0.4262
aF0.41
aF0.4176
aF0.4401
aF0.4224
aF0.4442
aF0.4323
aF0.4075
aF0.4237
aF0.4068
aF0.4297
aF0.444
aF0.4098
aF0.4325
aF0.4265
aF0.4373
aF0.4042
aF0.4353
aF0.4448
aF0.4251
aF0.4234
aF0.4111
aF0.4483
aF0.4456
aF0.4011
aF0.4065
aF0.4207
aF0.4469
aF0.4284
aF0.3933
aF0.3867
aF0.38
aF0.3733
aF0.3667
aF0.36
aF0.3533
aF0.3467
aF0.34
aF0.3333
aF0.3267
aF0.32
aF0.3133
aF0.3067
aF0.3
aF0.2933
aF0.2867
aF0.28
aF0.2733
aF0.2667
aF0.26
aF0.2533
aF0.2467
aF0.24
aF0.2333
aF0.2267
aF0.22
aF0.2133
aF0.2067
aF0.2
aF0.1933
aF0.1867
aF0.18
aF0.1733
aF0.1667
aF0.16
aF0.1533
aF0.1467
aF0.14
aF0.1333
aF0.1267
aF0.12
aF0.1133
aF0.1067
aF0.1
aF0.0933
aF0.0867
aF0.08
aF0.0733
aF0.0667
aF0.06
aF0.0533
aF0.0467
aF0.04
aF0.0333
aF0.0267
aF0.02
aF0.0133
aF0.0067
aF0.0
aI0
aI0
aI0
aI0
aI0
aI0
aI0
aI0
aI0
aI0
aI0
aI0
aI0
aI0
aI0
aI0
aI0
aI0
aI0
aI0
aI0
aI0
aI0
aI0
aI0
aI0
aI0
aI0
aI0
aI0
aI0
aI0
aI0
aI0
aI0
aI0
aI0
aI0
aI0
aI0
aI0
aI0
aI0
aI0
aI0
aI0
aI0
aI0
aI0
aI0
aI0
aI0
aI0
aI0
aI0
aI0
aI0
aI0
aI0
asI12
(lp9
F0.0074
aF0.0388
aF0.0211
aF0.038
aF0.042
aF0.0489
aF0.0746
aF0.0521
aF0.0609
aF0.0827
aF0.0706
aF0.114
aF0.0858
aF0.1137
aF0.1204
aF0.1066
aF0.1477
aF0.13
aF0.1298
aF0.1607
aF0.1367
aF0.1497
aF0.1797
aF0.1616
aF0.2002
aF0.1811
aF0.1745
aF0.2053
aF0.2066
aF0.2173
aF0.2049
aF0.2224
aF0.2576
aF0.2255
aF0.2586
aF0.2678
aF0.248
aF0.2836
aF0.2533
aF0.3092
aF0.2986
aF0.3065
aF0.3144
aF0.3072
aF0.3415
aF0.329
aF0.3396
aF0.3281
aF0.3292
aF0.3684
aF0.3464
aF0.3555
aF0.3488
aF0.3636
aF0.4039
aF0.4123
aF0.3927
aF0.3891
aF0.4295
aF0.4365
aF0.4329
aF0.446
aF0.4323
aF0.423
aF0.4405
aF0.4438
aF0.4364
aF0.4046
aF0.4207
aF0.4144
aF0.4331
aF0.4056
aF0.4219
aF0.4318
aF0.4253
aF0.415
aF0.4219
aF0.4414
aF0.4081
aF0.4162
aF0.4401
aF0.4461
aF0.4086
aF0.4336
aF0.4455
aF0.4148
aF0.4268
aF0.4421
aF0.4133
aF0.4296
aF0.4495
aF0.44
aF0.4446
aF0.4108
aF0.4017
aF0.4456
aF0.4499
aF0.4065
aF0.4363
aF0.4133
aF0.4264
aF0.4427
aF0.4304
aF0.4265
aF0.4205
aF0.4273
aF0.4139
aF0.428
aF0.4164
aF0.4037
aF0.4033
aF0.4452
aF0.4222
aF0.4079
aF0.4427
aF0.4427
aF0.4241
aF0.4347
aF0.4455
aF0.4078
aF0.4054
aF0.4122
aF0.4022
aF0.4471
aF0.432
aF0.4286
aF0.4352
aF0.417
aF0.4482
aF0.4198
aF0.4005
aF0.4454
aF0.4282
aF0.4056
aF0.4434
aF0.421
aF0.4449
aF0.4306
aF0.4456
aF0.4275
aF0.4216
aF0.4453
aF0.442
aF0.4026
aF0.4273
aF0.4054
aF0.4166
aF0.4024
aF0.4437
aF0.4182
aF0.425
aF0.4386
aF0.435
aF0.4032
aF0.4387
aF0.4424
aF0.4002
aF0.4053
aF0.4317
aF0.4263
aF0.4395
aF0.4413
aF0.4005
aF0.41
aF0.4147
aF0.4498
aF0.4121
aF0.448
aF0.4189
aF0.4147
aF0.4321
aF0.4119
aF0.4203
aF0.4102
aF0.4115
aF0.4234
aF0.4082
aF0.4443
aF0.4451
aF0.4262
aF0.4374
aF0.3933
aF0.3867
aF0.38
aF0.3733
aF0.3667
aF0.36
aF0.3533
aF0.3467
aF0.34
aF0.3333
aF0.3267
aF0.32
aF0.3133
aF0.3067
aF0.3
aF0.2933
aF0.2867
aF0.28
aF0.2733
aF0.2667
aF0.26
aF0.2533
aF0.2467
aF0.24
aF0.2333
aF0.2267
aF0.22
aF0.2133
aF0.2067
aF0.2
aF0.1933
aF0.1867
aF0.18
aF0.1733
aF0.1667
aF0.16
aF0.1533
aF0.1467
aF0.14
aF0.1333
aF0.1267
aF0.12
aF0.1133
aF0.1067
aF0.1
aF0.0933
aF0.0867
aF0.08
aF0.0733
aF0.0667
aF0.06
aF0.0533
aF0.0467
aF0.04
aF0.0333
aF0.0267
aF0.02
aF0.0133
aF0.0067
aF0.0
aI0
aI0
aI0
aI0
aI0
aI0
aI0
aI0
aI0
aI0
aI0
aI0
aI0
aI0
aI0
aI0
aI0
aI0
aI0
aI0
aI0
aI0
aI0
aI0
aI0
aI0
aI0
aI0
aI0
aI0
aI0
aI0
aI0
aI0
aI0
aI0
aI0
aI0
aI0
aI0
aI0
aI0
aI0
aI0
aI0
aI0
aI0
aI0
aI0
aI0
aI0
aI0
aI0
aI0
aI0
aI0
aI0
aI0
aI0
asI21
(lp10
F0.0067
aF0.015
aF0.0103
aF0.0221
aF0.0247
aF0.0344
aF0.039
aF0.0441
aF0.049
aF0.0481
aF0.0578
aF0.0581
aF0.068
aF0.0663
aF0.0756
aF0.0838
aF0.0833
aF0.0865
aF0.0947
aF0.1003
aF0.1015
aF0.1145
aF0.1166
aF0.1203
aF0.1282
aF0.1334
aF0.1316
aF0.1382
aF0.1446
aF0.1532
aF0.1507
aF0.1552
aF0.1679
aF0.1672
aF0.173
aF0.1849
aF0.1882
aF0.1941
aF0.1911
aF0.2048
aF0.2068
aF0.2074
aF0.2125
aF0.2181
aF0.2264
aF0.2292
aF0.2306
aF0.2353
aF0.2445
aF0.2512
aF0.2574
aF0.2583
aF0.2626
aF0.2677
aF0.2779
aF0.2776
aF0.281
aF0.2868
aF0.2987
aF0.2966
aF0.3039
aF0.3046
aF0.3461
aF0.3083
aF0.3165
aF0.3194
aF0.3244
aF0.3418
aF0.3097
aF0.3292
aF0.316
aF0.3388
aF0.3149
aF0.3403
aF0.3462
aF0.3252
aF0.3199
aF0.3165
aF0.3123
aF0.3371
aF0.3217
aF0.3097
aF0.317
aF0.3176
aF0.3166
aF0.3044
aF0.327
aF0.3106
aF0.313
aF0.3383
aF0.323
aF0.3263
aF0.3042
aF0.3176
aF0.3372
aF0.3111
aF0.3298
aF0.3141
aF0.3486
aF0.3326
aF0.3151
aF0.301
aF0.3266
aF0.3172
aF0.3351
aF0.3272
aF0.3483
aF0.3213
aF0.3419
aF0.3314
aF0.3131
aF0.3337
aF0.3254
aF0.345
aF0.3425
aF0.3488
aF0.3259
aF0.3175
aF0.332
aF0.3337
aF0.3412
aF0.3244
aF0.3224
aF0.3341
aF0.325
aF0.3157
aF0.347
aF0.3005
aF0.3363
aF0.302
aF0.3357
aF0.3298
aF0.3112
aF0.319
aF0.3427
aF0.336
aF0.3415
aF0.3176
aF0.3317
aF0.3311
aF0.3106
aF0.3015
aF0.3205
aF0.3257
aF0.3099
aF0.3442
aF0.3433
aF0.3482
aF0.3333
aF0.3192
aF0.332
aF0.3215
aF0.31
aF0.3215
aF0.3323
aF0.3211
aF0.3218
aF0.3306
aF0.331
aF0.3044
aF0.3131
aF0.3147
aF0.3425
aF0.3344
aF0.3256
aF0.3192
aF0.3242
aF0.3022
aF0.3036
aF0.3068
aF0.3034
aF0.3234
aF0.337
aF0.3068
aF0.3445
aF0.322
aF0.3206
aF0.3411
aF0.3315
aF0.3173
aF0.3208
aF0.295
aF0.29
aF0.285
aF0.28
aF0.275
aF0.27
aF0.265
aF0.26
aF0.255
aF0.25
aF0.245
aF0.24
aF0.235
aF0.23
aF0.225
aF0.22
aF0.215
aF0.21
aF0.205
aF0.2
aF0.195
aF0.19
aF0.185
aF0.18
aF0.175
aF0.17
aF0.165
aF0.16
aF0.155
aF0.15
aF0.145
aF0.14
aF0.135
aF0.13
aF0.125
aF0.12
aF0.115
aF0.11
aF0.105
aF0.1
aF0.095
aF0.09
aF0.085
aF0.08
aF0.075
aF0.07
aF0.065
aF0.06
aF0.055
aF0.05
aF0.045
aF0.04
aF0.035
aF0.03
aF0.025
aF0.02
aF0.015
aF0.01
aF0.005
aF0.0
aI0
aI0
aI0
aI0
aI0
aI0
aI0
aI0
aI0
aI0
aI0
aI0
aI0
aI0
aI0
aI0
aI0
aI0
aI0
aI0
aI0
aI0
aI0
aI0
aI0
aI0
aI0
aI0
aI0
aI0
aI0
aI0
aI0
aI0
aI0
aI0
aI0
aI0
aI0
aI0
aI0
aI0
aI0
aI0
aI0
aI0
aI0
aI0
aI0
aI0
aI0
aI0
aI0
aI0
aI0
aI0
aI0
aI0
aI0
asI22
(lp11
F0.0082
aF0.009
aF0.0158
aF0.0179
aF0.0245
aF0.0314
aF0.034
aF0.0434
aF0.0406
aF0.0494
aF0.0575
aF0.0555
aF0.0647
aF0.0741
aF0.0731
aF0.0779
aF0.0892
aF0.0909
aF0.0926
aF0.0989
aF0.1036
aF0.1101
aF0.1157
aF0.1189
aF0.1211
aF0.1332
aF0.1349
aF0.1428
aF0.1422
aF0.1493
aF0.159
aF0.1632
aF0.1697
aF0.1704
aF0.1706
aF0.1794
aF0.1862
aF0.1926
aF0.194
aF0.2045
aF0.2035
aF0.21
aF0.2199
aF0.2199
aF0.224
aF0.2349
aF0.2323
aF0.2359
aF0.2469
aF0.25
aF0.2536
aF0.2635
aF0.2674
aF0.2658
aF0.2746
aF0.2804
aF0.2815
aF0.2872
aF0.2947
aF0.2992
aF0.3021
aF0.3172
aF0.3168
aF0.3163
aF0.3305
aF0.35
aF0.3178
aF0.3297
aF0.3409
aF0.3241
aF0.3035
aF0.3243
aF0.3177
aF0.3082
aF0.3058
aF0.3041
aF0.3265
aF0.3174
aF0.3026
aF0.3429
aF0.3091
aF0.3242
aF0.3229
aF0.3193
aF0.315
aF0.342
aF0.3142
aF0.3241
aF0.3272
aF0.3271
aF0.3217
aF0.3146
aF0.327
aF0.3065
aF0.3286
aF0.3336
aF0.3339
aF0.3244
aF0.3158
aF0.3329
aF0.3041
aF0.3477
aF0.3052
aF0.3027
aF0.3422
aF0.3461
aF0.327
aF0.3186
aF0.3366
aF0.33
aF0.3235
aF0.3166
aF0.319
aF0.3026
aF0.3168
aF0.3022
aF0.3476
aF0.3081
aF0.3403
aF0.3265
aF0.3073
aF0.3011
aF0.3245
aF0.3064
aF0.3194
aF0.3241
aF0.3121
aF0.3181
aF0.3464
aF0.3284
aF0.347
aF0.3159
aF0.3396
aF0.3198
aF0.3145
aF0.3254
aF0.3432
aF0.3313
aF0.3333
aF0.3482
aF0.3403
aF0.3304
aF0.3279
aF0.342
aF0.3339
aF0.34
aF0.3233
aF0.3457
aF0.3395
aF0.323
aF0.3486
aF0.3056
aF0.3034
aF0.332
aF0.3111
aF0.3349
aF0.3346
aF0.3357
aF0.3359
aF0.3079
aF0.3148
aF0.3345
aF0.3125
aF0.3197
aF0.3139
aF0.3224
aF0.3176
aF0.3298
aF0.3213
aF0.3114
aF0.3342
aF0.3351
aF0.3015
aF0.3205
aF0.3057
aF0.3213
aF0.3369
aF0.3096
aF0.3388
aF0.3082
aF0.3464
aF0.295
aF0.29
aF0.285
aF0.28
aF0.275
aF0.27
aF0.265
aF0.26
aF0.255
aF0.25
aF0.245
aF0.24
aF0.235
aF0.23
aF0.225
aF0.22
aF0.215
aF0.21
aF0.205
aF0.2
aF0.195
aF0.19
aF0.185
aF0.18
aF0.175
aF0.17
aF0.165
aF0.16
aF0.155
aF0.15
aF0.145
aF0.14
aF0.135
aF0.13
aF0.125
aF0.12
aF0.115
aF0.11
aF0.105
aF0.1
aF0.095
aF0.09
aF0.085
aF0.08
aF0.075
aF0.07
aF0.065
aF0.06
aF0.055
aF0.05
aF0.045
aF0.04
aF0.035
aF0.03
aF0.025
aF0.02
aF0.015
aF0.01
aF0.005
aF0.0
aI0
aI0
aI0
aI0
aI0
aI0
aI0
aI0
aI0
aI0
aI0
aI0
aI0
aI0
aI0
aI0
aI0
aI0
aI0
aI0
aI0
aI0
aI0
aI0
aI0
aI0
aI0
aI0
aI0
aI0
aI0
aI0
aI0
aI0
aI0
aI0
aI0
aI0
aI0
aI0
aI0
aI0
aI0
aI0
aI0
aI0
aI0
aI0
aI0
aI0
aI0
aI0
aI0
aI0
aI0
aI0
aI0
aI0
aI0
assVd_low
p12
(dp13
I11
(lp14
F0.0205
aF0.0532
aF0.0288
aF0.0361
aF0.0349
aF0.0623
aF0.0526
aF0.0335
aF0.0592
aF0.0561
aF0.0598
aF0.0886
aF0.0668
aF0.0737
aF0.0991
aF0.1083
aF0.0823
aF0.0767
aF0.0797
aF0.0839
aF0.1194
aF0.107
aF0.1181
aF0.1019
aF0.1248
aF0.1485
aF0.1228
aF0.1128
aF0.1281
aF0.1474
aF0.1693
aF0.1392
aF0.1516
aF0.1594
aF0.1487
aF0.1624
aF0.1758
aF0.1712
aF0.1852
aF0.2107
aF0.2153
aF0.2016
aF0.1807
aF0.196
aF0.2064
aF0.2099
aF0.2133
aF0.1973
aF0.2152
aF0.2436
aF0.244
aF0.2595
aF0.2399
aF0.2537
aF0.2356
aF0.2395
aF0.25
aF0.266
aF0.2789
aF0.2478
aF0.267
aF0.2806
aF0.293
aF0.291
aF0.2784
aF0.2715
aF0.2737
aF0.2535
aF0.2538
aF0.2551
aF0.2594
aF0.2881
aF0.2788
aF0.2558
aF0.297
aF0.2861
aF0.2883
aF0.2946
aF0.2908
aF0.2587
aF0.2618
aF0.2795
aF0.264
aF0.2631
aF0.2519
aF0.2739
aF0.2809
aF0.2549
aF0.2555
aF0.2539
aF0.2954
aF0.2734
aF0.2994
aF0.2775
aF0.279
aF0.2928
aF0.2755
aF0.2534
aF0.2871
aF0.2945
aF0.2648
aF0.2534
aF0.2588
aF0.2901
aF0.2806
aF0.29
aF0.2953
aF0.2504
aF0.2667
aF0.2644
aF0.2825
aF0.2762
aF0.259
aF0.2772
aF0.2887
aF0.2768
aF0.2875
aF0.2628
aF0.2727
aF0.2528
aF0.2718
aF0.2624
aF0.2688
aF0.29
aF0.2698
aF0.272
aF0.2537
aF0.2548
aF0.2801
aF0.2535
aF0.2555
aF0.2509
aF0.256
aF0.2617
aF0.2748
aF0.2651
aF0.2546
aF0.2834
aF0.2983
aF0.2698
aF0.2743
aF0.274
aF0.2829
aF0.2617
aF0.2879
aF0.2941
aF0.2962
aF0.2849
aF0.2972
aF0.2703
aF0.2535
aF0.2537
aF0.2715
aF0.2864
aF0.2519
aF0.2552
aF0.2673
aF0.2739
aF0.2981
aF0.2772
aF0.2623
aF0.2786
aF0.2652
aF0.2752
aF0.2957
aF0.2978
aF0.2967
aF0.2966
aF0.2842
aF0.2858
aF0.2877
aF0.2554
aF0.2974
aF0.2837
aF0.2585
aF0.2882
aF0.2945
aF0.2991
aF0.2733
aF0.2974
aF0.2691
aF0.2458
aF0.2417
aF0.2375
aF0.2333
aF0.2292
aF0.225
aF0.2208
aF0.2167
aF0.2125
aF0.2083
aF0.2042
aF0.2
aF0.1958
aF0.1917
aF0.1875
aF0.1833
aF0.1792
aF0.175
aF0.1708
aF0.1667
aF0.1625
aF0.1583
aF0.1542
aF0.15
aF0.1458
aF0.1417
aF0.1375
aF0.1333
aF0.1292
aF0.125
aF0.1208
aF0.1167
aF0.1125
aF0.1083
aF0.1042
aF0.1
aF0.0958
aF0.0917
aF0.0875
aF0.0833
aF0.0792
aF0.075
aF0.0708
aF0.0667
aF0.0625
aF0.0583
aF0.0542
aF0.05
aF0.0458
aF0.0417
aF0.0375
aF0.0333
aF0.0292
aF0.025
aF0.0208
aF0.0167
aF0.0125
aF0.0083
aF0.0042
aF0.0
aI0
aI0
aI0
aI0
aI0
aI0
aI0
aI0
aI0
aI0
aI0
aI0
aI0
aI0
aI0
aI0
aI0
aI0
aI0
aI0
aI0
aI0
aI0
aI0
aI0
aI0
aI0
aI0
aI0
aI0
aI0
aI0
aI0
aI0
aI0
aI0
aI0
aI0
aI0
aI0
aI0
aI0
aI0
aI0
aI0
aI0
aI0
aI0
aI0
aI0
aI0
aI0
aI0
aI0
aI0
aI0
aI0
aI0
aI0
asI12
(lp15
F0.044
aF0.0149
aF0.0481
aF0.058
aF0.0468
aF0.0247
aF0.0544
aF0.0708
aF0.0417
aF0.075
aF0.0691
aF0.0657
aF0.0551
aF0.0803
aF0.0803
aF0.0733
aF0.0993
aF0.1186
aF0.1187
aF0.0887
aF0.1024
aF0.1337
aF0.1136
aF0.1455
aF0.1166
aF0.1367
aF0.1146
aF0.1192
aF0.1405
aF0.1298
aF0.1712
aF0.1667
aF0.1693
aF0.1862
aF0.1851
aF0.1883
aF0.1995
aF0.1866
aF0.197
aF0.1832
aF0.1831
aF0.1786
aF0.1752
aF0.2059
aF0.2099
aF0.1898
aF0.2264
aF0.2358
aF0.25
aF0.2496
aF0.249
aF0.2532
aF0.2521
aF0.2264
aF0.2658
aF0.2532
aF0.2604
aF0.2417
aF0.2635
aF0.2895
aF0.2898
aF0.2729
aF0.269
aF0.2747
aF0.2744
aF0.2946
aF0.2753
aF0.2856
aF0.2596
aF0.2886
aF0.2556
aF0.2711
aF0.2831
aF0.2815
aF0.2943
aF0.2723
aF0.275
aF0.2933
aF0.2893
aF0.2685
aF0.2772
aF0.2857
aF0.2856
aF0.279
aF0.257
aF0.2607
aF0.2728
aF0.2522
aF0.2892
aF0.2565
aF0.2549
aF0.2593
aF0.2719
aF0.2978
aF0.2903
aF0.2709
aF0.2991
aF0.2555
aF0.2504
aF0.2524
aF0.2809
aF0.2758
aF0.2802
aF0.2522
aF0.2937
aF0.2666
aF0.2834
aF0.2867
aF0.2996
aF0.2563
aF0.2798
aF0.2922
aF0.2849
aF0.2765
aF0.2604
aF0.2907
aF0.2707
aF0.2622
aF0.2784
aF0.2936
aF0.2503
aF0.2958
aF0.2973
aF0.274
aF0.2511
aF0.2643
aF0.2743
aF0.2782
aF0.2531
aF0.2901
aF0.2876
aF0.2896
aF0.279
aF0.2822
aF0.2963
aF0.2598
aF0.2933
aF0.2597
aF0.2904
aF0.2772
aF0.2893
aF0.2642
aF0.262
aF0.2565
aF0.2924
aF0.2809
aF0.2716
aF0.2605
aF0.2581
aF0.2761
aF0.2986
aF0.2899
aF0.2846
aF0.2711
aF0.2853
aF0.2602
aF0.2667
aF0.2583
aF0.2589
aF0.2989
aF0.2642
aF0.2795
aF0.2946
aF0.2604
aF0.294
aF0.2752
aF0.2705
aF0.2717
aF0.2814
aF0.3
aF0.2868
aF0.2839
aF0.2739
aF0.2812
aF0.2583
aF0.2994
aF0.2753
aF0.2811
aF0.2613
aF0.2663
aF0.2792
aF0.2458
aF0.2417
aF0.2375
aF0.2333
aF0.2292
aF0.225
aF0.2208
aF0.2167
aF0.2125
aF0.2083
aF0.2042
aF0.2
aF0.1958
aF0.1917
aF0.1875
aF0.1833
aF0.1792
aF0.175
aF0.1708
aF0.1667
aF0.1625
aF0.1583
aF0.1542
aF0.15
aF0.1458
aF0.1417
aF0.1375
aF0.1333
aF0.1292
aF0.125
aF0.1208
aF0.1167
aF0.1125
aF0.1083
aF0.1042
aF0.1
aF0.0958
aF0.0917
aF0.0875
aF0.0833
aF0.0792
aF0.075
aF0.0708
aF0.0667
aF0.0625
aF0.0583
aF0.0542
aF0.05
aF0.0458
aF0.0417
aF0.0375
aF0.0333
aF0.0292
aF0.025
aF0.0208
aF0.0167
aF0.0125
aF0.0083
aF0.0042
aF0.0
aI0
aI0
aI0
aI0
aI0
aI0
aI0
aI0
aI0
aI0
aI0
aI0
aI0
aI0
aI0
aI0
aI0
aI0
aI0
aI0
aI0
aI0
aI0
aI0
aI0
aI0
aI0
aI0
aI0
aI0
aI0
aI0
aI0
aI0
aI0
aI0
aI0
aI0
aI0
aI0
aI0
aI0
aI0
aI0
aI0
aI0
aI0
aI0
aI0
aI0
aI0
aI0
aI0
aI0
aI0
aI0
aI0
aI0
aI0
asI21
(lp16
F0.0055
aF0.0101
aF0.0077
aF0.0088
aF0.011
aF0.0159
aF0.0152
aF0.0156
aF0.0142
aF0.0214
aF0.0266
aF0.027
aF0.0235
aF0.0276
aF0.0331
aF0.033
aF0.0339
aF0.036
aF0.0308
aF0.039
aF0.0423
aF0.0375
aF0.0422
aF0.0456
aF0.0419
aF0.044
aF0.0448
aF0.0456
aF0.0502
aF0.0546
aF0.0575
aF0.0517
aF0.0553
aF0.0552
aF0.0575
aF0.0651
aF0.0679
aF0.0712
aF0.0672
aF0.0734
aF0.0744
aF0.0775
aF0.075
aF0.0736
aF0.0787
aF0.0791
aF0.0806
aF0.0784
aF0.0872
aF0.0827
aF0.0838
aF0.0905
aF0.0953
aF0.0907
aF0.0935
aF0.0951
aF0.0996
aF0.1029
aF0.0993
aF0.0992
aF0.1013
aF0.1351
aF0.1434
aF0.1344
aF0.1031
aF0.1434
aF0.1426
aF0.1163
aF0.1296
aF0.12
aF0.119
aF0.1108
aF0.1138
aF0.1091
aF0.1019
aF0.1074
aF0.1383
aF0.1234
aF0.1131
aF0.121
aF0.1404
aF0.1369
aF0.1266
aF0.1066
aF0.1053
aF0.1338
aF0.1214
aF0.1051
aF0.1458
aF0.1362
aF0.1436
aF0.1112
aF0.1121
aF0.1096
aF0.1112
aF0.1205
aF0.1475
aF0.1103
aF0.1469
aF0.1278
aF0.1168
aF0.1171
aF0.1295
aF0.1014
aF0.1296
aF0.135
aF0.1093
aF0.1494
aF0.1242
aF0.1078
aF0.1323
aF0.1001
aF0.1435
aF0.1018
aF0.1373
aF0.136
aF0.1494
aF0.1458
aF0.1492
aF0.1034
aF0.127
aF0.1117
aF0.1457
aF0.1274
aF0.1414
aF0.1161
aF0.1471
aF0.134
aF0.1497
aF0.1244
aF0.1248
aF0.1358
aF0.1031
aF0.1488
aF0.1452
aF0.1315
aF0.1187
aF0.1265
aF0.1217
aF0.1285
aF0.1395
aF0.1077
aF0.1093
aF0.1346
aF0.1436
aF0.1174
aF0.1328
aF0.1225
aF0.1126
aF0.1243
aF0.1286
aF0.1128
aF0.1155
aF0.1434
aF0.13
aF0.1181
aF0.1373
aF0.1019
aF0.1446
aF0.1108
aF0.1018
aF0.1305
aF0.1169
aF0.1415
aF0.1206
aF0.125
aF0.1222
aF0.1076
aF0.1439
aF0.1471
aF0.1016
aF0.1428
aF0.1126
aF0.1205
aF0.1374
aF0.1405
aF0.1071
aF0.1439
aF0.1373
aF0.1131
aF0.1273
aF0.0983
aF0.0967
aF0.095
aF0.0933
aF0.0917
aF0.09
aF0.0883
aF0.0867
aF0.085
aF0.0833
aF0.0817
aF0.08
aF0.0783
aF0.0767
aF0.075
aF0.0733
aF0.0717
aF0.07
aF0.0683
aF0.0667
aF0.065
aF0.0633
aF0.0617
aF0.06
aF0.0583
aF0.0567
aF0.055
aF0.0533
aF0.0517
aF0.05
aF0.0483
aF0.0467
aF0.045
aF0.0433
aF0.0417
aF0.04
aF0.0383
aF0.0367
aF0.035
aF0.0333
aF0.0317
aF0.03
aF0.0283
aF0.0267
aF0.025
aF0.0233
aF0.0217
aF0.02
aF0.0183
aF0.0167
aF0.015
aF0.0133
aF0.0117
aF0.01
aF0.0083
aF0.0067
aF0.005
aF0.0033
aF0.0017
aF0.0
aI0
aI0
aI0
aI0
aI0
aI0
aI0
aI0
aI0
aI0
aI0
aI0
aI0
aI0
aI0
aI0
aI0
aI0
aI0
aI0
aI0
aI0
aI0
aI0
aI0
aI0
aI0
aI0
aI0
aI0
aI0
aI0
aI0
aI0
aI0
aI0
aI0
aI0
aI0
aI0
aI0
aI0
aI0
aI0
aI0
aI0
aI0
aI0
aI0
aI0
aI0
aI0
aI0
aI0
aI0
aI0
aI0
aI0
aI0
asI22
(lp17
F0.0036
aF0.0034
aF0.0126
aF0.0135
aF0.013
aF0.0179
aF0.0167
aF0.0122
aF0.0217
aF0.0229
aF0.0169
aF0.0206
aF0.027
aF0.03
aF0.0311
aF0.0309
aF0.0272
aF0.0301
aF0.0377
aF0.0339
aF0.0336
aF0.0367
aF0.0386
aF0.043
aF0.0416
aF0.0422
aF0.0446
aF0.0473
aF0.0496
aF0.0522
aF0.0516
aF0.0535
aF0.0536
aF0.0635
aF0.0622
aF0.0671
aF0.0689
aF0.0668
aF0.0672
aF0.0668
aF0.074
aF0.0707
aF0.0705
aF0.0754
aF0.0759
aF0.0831
aF0.0784
aF0.0873
aF0.0828
aF0.0856
aF0.0856
aF0.0933
aF0.0937
aF0.0974
aF0.093
aF0.0996
aF0.0981
aF0.1042
aF0.1057
aF0.1056
aF0.1077
aF0.1182
aF0.1471
aF0.1119
aF0.1188
aF0.1374
aF0.1494
aF0.1146
aF0.1349
aF0.1374
aF0.1463
aF0.1223
aF0.1021
aF0.132
aF0.139
aF0.1307
aF0.1196
aF0.1412
aF0.1442
aF0.1405
aF0.1474
aF0.1214
aF0.1204
aF0.1083
aF0.106
aF0.1286
aF0.109
aF0.1409
aF0.1016
aF0.1016
aF0.1467
aF0.1267
aF0.1396
aF0.1312
aF0.1176
aF0.1229
aF0.149
aF0.1114
aF0.1075
aF0.1416
aF0.1236
aF0.1172
aF0.1151
aF0.1225
aF0.1171
aF0.1239
aF0.1272
aF0.1452
aF0.1218
aF0.1311
aF0.1353
aF0.1475
aF0.1269
aF0.1059
aF0.114
aF0.1411
aF0.1003
aF0.1315
aF0.1004
aF0.1108
aF0.1092
aF0.1434
aF0.129
aF0.1407
aF0.1291
aF0.1058
aF0.1129
aF0.1202
aF0.1111
aF0.1187
aF0.1287
aF0.1463
aF0.1137
aF0.1355
aF0.1457
aF0.1267
aF0.1034
aF0.1061
aF0.1182
aF0.1072
aF0.1377
aF0.1459
aF0.1064
aF0.1439
aF0.1169
aF0.1129
aF0.1476
aF0.1276
aF0.1044
aF0.1304
aF0.1388
aF0.1412
aF0.1283
aF0.1112
aF0.1202
aF0.1035
aF0.1064
aF0.1474
aF0.1091
aF0.1165
aF0.1439
aF0.1195
aF0.1463
aF0.1393
aF0.1437
aF0.126
aF0.1349
aF0.1379
aF0.1059
aF0.1275
aF0.1084
aF0.1208
aF0.1213
aF0.1444
aF0.1401
aF0.1046
aF0.1166
aF0.1225
aF0.1183
aF0.1193
aF0.1004
aF0.0983
aF0.0967
aF0.095
aF0.0933
aF0.0917
aF0.09
aF0.0883
aF0.0867
aF0.085
aF0.0833
aF0.0817
aF0.08
aF0.0783
aF0.0767
aF0.075
aF0.0733
aF0.0717
aF0.07
aF0.0683
aF0.0667
aF0.065
aF0.0633
aF0.0617
aF0.06
aF0.0583
aF0.0567
aF0.055
aF0.0533
aF0.0517
aF0.05
aF0.0483
aF0.0467
aF0.045
aF0.0433
aF0.0417
aF0.04
aF0.0383
aF0.0367
aF0.035
aF0.0333
aF0.0317
aF0.03
aF0.0283
aF0.0267
aF0.025
aF0.0233
aF0.0217
aF0.02
aF0.0183
aF0.0167
aF0.015
aF0.0133
aF0.0117
aF0.01
aF0.0083
aF0.0067
aF0.005
aF0.0033
aF0.0017
aF0.0
aI0
aI0
aI0
aI0
aI0
aI0
aI0
aI0
aI0
aI0
aI0
aI0
aI0
aI0
aI0
aI0
aI0
aI0
aI0
aI0
aI0
aI0
aI0
aI0
aI0
aI0
aI0
aI0
aI0
aI0
aI0
aI0
aI0
aI0
aI0
aI0
aI0
aI0
aI0
aI0
aI0
aI0
aI0
aI0
aI0
aI0
aI0
aI0
aI0
aI0
aI0
aI0
aI0
aI0
aI0
aI0
aI0
aI0
aI0
assVx
p18
(lp19
I0
aI1
aI2
aI3
aI4
aI5
aI6
aI7
aI8
aI9
aI10
aI11
aI12
aI13
aI14
aI15
aI16
aI17
aI18
aI19
aI20
aI21
aI22
aI23
aI24
aI25
aI26
aI27
aI28
aI29
aI30
aI31
aI32
aI33
aI34
aI35
aI36
aI37
aI38
aI39
aI40
aI41
aI42
aI43
aI44
aI45
aI46
aI47
aI48
aI49
aI50
aI51
aI52
aI53
aI54
aI55
aI56
aI57
aI58
aI59
aI60
aI61
aI62
aI63
aI64
aI65
aI66
aI67
aI68
aI69
aI70
aI71
aI72
aI73
aI74
aI75
aI76
aI77
aI78
aI79
aI80
aI81
aI82
aI83
aI84
aI85
aI86
aI87
aI88
aI89
aI90
aI91
aI92
aI93
aI94
aI95
aI96
aI97
aI98
aI99
aI100
aI101
aI102
aI103
aI104
aI105
aI106
aI107
aI108
aI109
aI110
aI111
aI112
aI113
aI114
aI115
aI116
aI117
aI118
aI119
aI120
aI121
aI122
aI123
aI124
aI125
aI126
aI127
aI128
aI129
aI130
aI131
aI132
aI133
aI134
aI135
aI136
aI137
aI138
aI139
aI140
aI141
aI142
aI143
aI144
aI145
aI146
aI147
aI148
aI149
aI150
aI151
aI152
aI153
aI154
aI155
aI156
aI157
aI158
aI159
aI160
aI161
aI162
aI163
aI164
aI165
aI166
aI167
aI168
aI169
aI170
aI171
aI172
aI173
aI174
aI175
aI176
aI177
aI178
aI179
aI180
aI181
aI182
aI183
aI184
aI185
aI186
aI187
aI188
aI189
aI190
aI191
aI192
aI193
aI194
aI195
aI196
aI197
aI198
aI199
aI200
aI201
aI202
aI203
aI204
aI205
aI206
aI207
aI208
aI209
aI210
aI211
aI212
aI213
aI214
aI215
aI216
aI217
aI218
aI219
aI220
aI221
aI222
aI223
aI224
aI225
aI226
aI227
aI228
aI229
aI230
aI231
aI232
aI233
aI234
aI235
aI236
aI237
aI238
aI239
aI240
aI241
aI242
aI243
aI244
aI245
aI246
aI247
aI248
aI249
aI250
aI251
aI252
aI253
aI254
aI255
aI256
aI257
aI258
aI259
aI260
aI261
aI262
aI263
aI264
aI265
aI266
aI267
aI268
aI269
aI270
aI271
aI272
aI273
aI274
aI275
aI276
aI277
aI278
aI279
aI280
aI281
aI282
aI283
aI284
aI285
aI286
aI287
aI288
aI289
aI290
aI291
aI292
aI293
aI294
aI295
aI296
aI297
aI298
aI299
asVy
p20
(lp21
I0
aI1
aI2
aI3
aI4
aI5
aI6
aI7
aI8
aI9
aI10
aI11
aI12
aI13
aI14
aI15
aI16
aI17
aI18
aI19
aI20
aI21
aI22
aI23
aI24
aI25
aI26
aI27
aI28
aI29
aI30
aI31
aI32
aI33
aI34
aI35
aI36
aI37
aI38
aI39
aI40
aI41
aI42
aI43
aI44
aI45
aI46
aI47
aI48
aI49
aI50
aI51
aI52
aI53
aI54
aI55
aI56
aI57
aI58
aI59
aI60
aI61
aI62
aI63
aI64
aI65
aI66
aI67
aI68
aI69
aI70
aI71
aI72
aI73
aI74
aI75
aI76
aI77
aI78
aI79
aI80
aI81
aI82
aI83
aI84
aI85
aI86
aI87
aI88
aI89
aI90
aI91
aI92
aI93
aI94
aI95
aI96
aI97
aI98
aI99
aI100
aI101
aI102
aI103
aI104
aI105
aI106
aI107
aI108
aI109
aI110
aI111
aI112
aI113
aI114
aI115
aI116
aI117
aI118
aI119
aI120
aI121
aI122
aI123
aI124
aI125
aI126
aI127
aI128
aI129
aI130
aI131
aI132
aI133
aI134
aI135
aI136
aI137
aI138
aI139
aI140
aI141
aI142
aI143
aI144
aI145
aI146
aI147
aI148
aI149
aI150
aI151
aI152
aI153
aI154
aI155
aI156
aI157
aI158
aI159
aI160
aI161
aI162
aI163
aI164
aI165
aI166
aI167
aI168
aI169
aI170
aI171
aI172
aI173
aI174
aI175
aI176
aI177
aI178
aI179
aI180
aI181
aI182
aI183
aI184
aI185
aI186
aI187
aI188
aI189
aI190
aI191
aI192
aI193
aI194
aI195
aI196
aI197
aI198
aI199
aI200
aI201
aI202
aI203
aI204
aI205
aI206
aI207
aI208
aI209
aI210
aI211
aI212
aI213
aI214
aI215
aI216
aI217
aI218
aI219
aI220
aI221
aI222
aI223
aI224
aI225
aI226
aI227
aI228
aI229
aI230
aI231
aI232
aI233
aI234
aI235
aI236
aI237
aI238
aI239
aI240
aI241
aI242
aI243
aI244
aI245
aI246
aI247
aI248
aI249
aI250
aI251
aI252
aI253
aI254
aI255
aI256
aI257
aI258
aI259
aI260
aI261
aI262
aI263
aI264
aI265
aI266
aI267
aI268
aI269
aI270
aI271
aI272
aI273
aI274
aI275
aI276
aI277
aI278
aI279
aI280
aI281
aI282
aI283
aI284
aI285
aI286
aI287
aI288
aI289
aI290
aI291
aI292
aI293
aI294
aI295
aI296
aI297
aI298
aI299
asVd_2
p22
g7
sVd_low_2
p23
g13
sb.